---
triple:          'x86_64-apple-darwin'
binary-path:     tracer
relocations:
  - { offsetInCU: 0x26, offset: 0x26, size: 0x8, addend: 0x0, symName: __Z6lengthRK4Vec3IdE, symObjAddr: 0x0, symBinAddr: 0x100000E90, symSize: 0x60 }
  - { offsetInCU: 0x2E87, offset: 0x2E87, size: 0x8, addend: 0x0, symName: __Z6lengthRK4Vec3IdE, symObjAddr: 0x0, symBinAddr: 0x100000E90, symSize: 0x60 }
  - { offsetInCU: 0x2EB3, offset: 0x2EB3, size: 0x8, addend: 0x0, symName: __Z9normalizeR4Vec3IdE, symObjAddr: 0x60, symBinAddr: 0x100000EF0, symSize: 0xA0 }
  - { offsetInCU: 0x304E, offset: 0x304E, size: 0x8, addend: 0x0, symName: __ZN4Vec3IdEC1Eddd, symObjAddr: 0x100, symBinAddr: 0x100000F90, symSize: 0x40 }
  - { offsetInCU: 0x30A0, offset: 0x30A0, size: 0x8, addend: 0x0, symName: __ZN4Vec3IdEC1ERKS0_, symObjAddr: 0x140, symBinAddr: 0x100000FD0, symSize: 0x30 }
  - { offsetInCU: 0x30D6, offset: 0x30D6, size: 0x8, addend: 0x0, symName: __ZN4Vec3IdEC2Eddd, symObjAddr: 0x170, symBinAddr: 0x100001000, symSize: 0x40 }
  - { offsetInCU: 0x3128, offset: 0x3128, size: 0x8, addend: 0x0, symName: __ZN4Vec3IdEC2ERKS0_, symObjAddr: 0x1B0, symBinAddr: 0x100001040, symSize: 0x3A }
  - { offsetInCU: 0x5F, offset: 0x31DC, size: 0x8, addend: 0x0, symName: __ZL4MISS, symObjAddr: 0x6C78, symBinAddr: 0x10000D000, symSize: 0x0 }
  - { offsetInCU: 0x2994, offset: 0x5B11, size: 0x8, addend: 0x0, symName: __ZN4Vec3IdEC1Ed, symObjAddr: 0x0, symBinAddr: 0x100001080, symSize: 0x30 }
  - { offsetInCU: 0x2D70, offset: 0x5EED, size: 0x8, addend: 0x0, symName: __ZN6Object11setMaterialEP8Material, symObjAddr: 0x30, symBinAddr: 0x1000010B0, symSize: 0x20 }
  - { offsetInCU: 0x2DA4, offset: 0x5F21, size: 0x8, addend: 0x0, symName: __ZN6Object11getMaterialEv, symObjAddr: 0x50, symBinAddr: 0x1000010D0, symSize: 0x20 }
  - { offsetInCU: 0x2DCA, offset: 0x5F47, size: 0x8, addend: 0x0, symName: __ZN6Object12computeColorE4Vec3IdES1_5LightbS1_, symObjAddr: 0x70, symBinAddr: 0x1000010F0, symSize: 0xD0 }
  - { offsetInCU: 0x2E49, offset: 0x5FC6, size: 0x8, addend: 0x0, symName: __ZN4Vec3IdEC2Ed, symObjAddr: 0x1B0, symBinAddr: 0x1000011C0, symSize: 0x30 }
  - { offsetInCU: 0x5F, offset: 0x6065, size: 0x8, addend: 0x0, symName: __ZL4MISS, symObjAddr: 0x7D90, symBinAddr: 0x10000D018, symSize: 0x0 }
  - { offsetInCU: 0x2B41, offset: 0x8B47, size: 0x8, addend: 0x0, symName: __ZN6SphereC2E4Vec3IdEd, symObjAddr: 0x30, symBinAddr: 0x100001220, symSize: 0x60 }
  - { offsetInCU: 0x2B88, offset: 0x8B8E, size: 0x8, addend: 0x0, symName: __ZN6ObjectC2Ev, symObjAddr: 0x90, symBinAddr: 0x100001280, symSize: 0x20 }
  - { offsetInCU: 0x2BB2, offset: 0x8BB8, size: 0x8, addend: 0x0, symName: __ZN6SphereC1E4Vec3IdEd, symObjAddr: 0xE0, symBinAddr: 0x1000012A0, symSize: 0x30 }
  - { offsetInCU: 0x2BF9, offset: 0x8BFF, size: 0x8, addend: 0x0, symName: __ZN6Sphere21calculateIntersectionERK3RayRKb, symObjAddr: 0x110, symBinAddr: 0x1000012D0, symSize: 0x130 }
  - { offsetInCU: 0x2CA2, offset: 0x8CA8, size: 0x8, addend: 0x0, symName: __ZNK4Vec3IdEmiERKS0_, symObjAddr: 0x240, symBinAddr: 0x100001400, symSize: 0x60 }
  - { offsetInCU: 0x2CD4, offset: 0x8CDA, size: 0x8, addend: 0x0, symName: __Z3dotRK4Vec3IdES2_, symObjAddr: 0x2A0, symBinAddr: 0x100001460, symSize: 0x60 }
  - { offsetInCU: 0x2D0E, offset: 0x8D14, size: 0x8, addend: 0x0, symName: __ZNK3Ray17findPositionOnRayEd, symObjAddr: 0x300, symBinAddr: 0x1000014C0, symSize: 0x60 }
  - { offsetInCU: 0x2D40, offset: 0x8D46, size: 0x8, addend: 0x0, symName: __ZN6Sphere13computeNormalE4Vec3IdE, symObjAddr: 0x360, symBinAddr: 0x100001520, symSize: 0x60 }
  - { offsetInCU: 0x2D75, offset: 0x8D7B, size: 0x8, addend: 0x0, symName: __ZN9DirectionC1E4Vec3IdE, symObjAddr: 0x3C0, symBinAddr: 0x100001580, symSize: 0x20 }
  - { offsetInCU: 0x2DAC, offset: 0x8DB2, size: 0x8, addend: 0x0, symName: __ZNK4Vec3IdEplERKS0_, symObjAddr: 0x3E0, symBinAddr: 0x1000015A0, symSize: 0x60 }
  - { offsetInCU: 0x2DDE, offset: 0x8DE4, size: 0x8, addend: 0x0, symName: __ZNK4Vec3IdEmlERKd, symObjAddr: 0x440, symBinAddr: 0x100001600, symSize: 0x60 }
  - { offsetInCU: 0x2E10, offset: 0x8E16, size: 0x8, addend: 0x0, symName: __ZN9DirectionC2E4Vec3IdE, symObjAddr: 0x520, symBinAddr: 0x100001660, symSize: 0x70 }
  - { offsetInCU: 0x2E47, offset: 0x8E4D, size: 0x8, addend: 0x0, symName: __ZN4Vec3IdEC2Ev, symObjAddr: 0x590, symBinAddr: 0x1000016D0, symSize: 0x30 }
  - { offsetInCU: 0x5F, offset: 0x8EF2, size: 0x8, addend: 0x0, symName: __ZL4MISS, symObjAddr: 0x7EC8, symBinAddr: 0x10000D030, symSize: 0x0 }
  - { offsetInCU: 0x2A5B, offset: 0xB8EE, size: 0x8, addend: 0x0, symName: __ZN8Triangle21calculateIntersectionERK3RayRKb, symObjAddr: 0x30, symBinAddr: 0x100001730, symSize: 0x240 }
  - { offsetInCU: 0x2B32, offset: 0xB9C5, size: 0x8, addend: 0x0, symName: __Z13cross_productRK4Vec3IdES2_, symObjAddr: 0x2D0, symBinAddr: 0x100001970, symSize: 0xF0 }
  - { offsetInCU: 0x2B6C, offset: 0xB9FF, size: 0x8, addend: 0x0, symName: __ZN8Triangle13computeNormalE4Vec3IdE, symObjAddr: 0x4B0, symBinAddr: 0x100001A60, symSize: 0xC0 }
  - { offsetInCU: 0x26, offset: 0xBA7C, size: 0x8, addend: 0x0, symName: __ZN6Camera10computeRayEdd, symObjAddr: 0x0, symBinAddr: 0x100001B50, symSize: 0x130 }
  - { offsetInCU: 0x2A81, offset: 0xE4D7, size: 0x8, addend: 0x0, symName: __ZN6Camera10computeRayEdd, symObjAddr: 0x0, symBinAddr: 0x100001B50, symSize: 0x130 }
  - { offsetInCU: 0x2AFD, offset: 0xE553, size: 0x8, addend: 0x0, symName: __ZN3RayC1E4Vec3IdE9Direction, symObjAddr: 0x220, symBinAddr: 0x100001C80, symSize: 0x30 }
  - { offsetInCU: 0x2B43, offset: 0xE599, size: 0x8, addend: 0x0, symName: __Z14calculateAngled, symObjAddr: 0x250, symBinAddr: 0x100001CB0, symSize: 0x40 }
  - { offsetInCU: 0x2B7D, offset: 0xE5D3, size: 0x8, addend: 0x0, symName: __ZN3RayC2E4Vec3IdE9Direction, symObjAddr: 0x330, symBinAddr: 0x100001CF0, symSize: 0x40 }
  - { offsetInCU: 0x2BCD, offset: 0xE623, size: 0x8, addend: 0x0, symName: __ZN9DirectionC1ERKS_, symObjAddr: 0x370, symBinAddr: 0x100001D30, symSize: 0x30 }
  - { offsetInCU: 0x2BFF, offset: 0xE655, size: 0x8, addend: 0x0, symName: __ZN9DirectionC2ERKS_, symObjAddr: 0x3A0, symBinAddr: 0x100001D60, symSize: 0x30 }
  - { offsetInCU: 0x57, offset: 0xE6ED, size: 0x8, addend: 0x0, symName: __ZL4MISS, symObjAddr: 0x5EB8, symBinAddr: 0x10000D048, symSize: 0x0 }
  - { offsetInCU: 0x5F, offset: 0x11083, size: 0x8, addend: 0x0, symName: __ZL4MISS, symObjAddr: 0x51CA8, symBinAddr: 0x10000D060, symSize: 0x0 }
  - { offsetInCU: 0xC256, offset: 0x1D27A, size: 0x8, addend: 0x0, symName: __ZNSt3__124__put_character_sequenceB8ue170006IcNS_11char_traitsIcEEEERNS_13basic_ostreamIT_T0_EES7_PKS4_m, symObjAddr: 0x5030, symBinAddr: 0x100006A40, symSize: 0x1F0 }
  - { offsetInCU: 0xEB17, offset: 0x1FB3B, size: 0x8, addend: 0x0, symName: __ZNSt3__1rsB8ue170006IcNS_11char_traitsIcEENS_9allocatorIcEEEERNS_13basic_istreamIT_T0_EES9_RNS_12basic_stringIS6_S7_T1_EE, symObjAddr: 0x740, symBinAddr: 0x1000024D0, symSize: 0x2F0 }
  - { offsetInCU: 0xEBEF, offset: 0x1FC13, size: 0x8, addend: 0x0, symName: __ZNSt3__1eqB8ue170006IcNS_11char_traitsIcEENS_9allocatorIcEEEEbRKNS_12basic_stringIT_T0_T1_EEPKS6_, symObjAddr: 0xE60, symBinAddr: 0x100002BF0, symSize: 0x90 }
  - { offsetInCU: 0xEC57, offset: 0x1FC7B, size: 0x8, addend: 0x0, symName: __ZNSt3__1lsB8ue170006INS_11char_traitsIcEEEERNS_13basic_ostreamIcT_EES6_c, symObjAddr: 0x1520, symBinAddr: 0x100003280, symSize: 0x30 }
  - { offsetInCU: 0xEC9D, offset: 0x1FCC1, size: 0x8, addend: 0x0, symName: __ZNSt3__1lsB8ue170006INS_11char_traitsIcEEEERNS_13basic_ostreamIcT_EES6_PKc, symObjAddr: 0x1550, symBinAddr: 0x1000032B0, symSize: 0x40 }
  - { offsetInCU: 0xECE3, offset: 0x1FD07, size: 0x8, addend: 0x0, symName: __ZNSt3__1lsB8ue170006IcNS_11char_traitsIcEENS_9allocatorIcEEEERNS_13basic_ostreamIT_T0_EES9_RKNS_12basic_stringIS6_S7_T1_EE, symObjAddr: 0x1590, symBinAddr: 0x1000032F0, symSize: 0x50 }
  - { offsetInCU: 0xED3B, offset: 0x1FD5F, size: 0x8, addend: 0x0, symName: __ZNSt3__112__to_addressB8ue170006IP6ObjectEEPT_S4_, symObjAddr: 0x1F40, symBinAddr: 0x100003CA0, symSize: 0x10 }
  - { offsetInCU: 0xED70, offset: 0x1FD94, size: 0x8, addend: 0x0, symName: __ZNSt3__119__libcpp_deallocateB8ue170006EPvmm, symObjAddr: 0x1FE0, symBinAddr: 0x100003D40, symSize: 0x60 }
  - { offsetInCU: 0xEDD8, offset: 0x1FDFC, size: 0x8, addend: 0x0, symName: __ZNSt3__124__is_overaligned_for_newB8ue170006Em, symObjAddr: 0x2040, symBinAddr: 0x100003DA0, symSize: 0x20 }
  - { offsetInCU: 0xEE06, offset: 0x1FE2A, size: 0x8, addend: 0x0, symName: __ZNSt3__127__do_deallocate_handle_sizeB8ue170006IJSt11align_val_tEEEvPvmDpT_, symObjAddr: 0x2060, symBinAddr: 0x100003DC0, symSize: 0x30 }
  - { offsetInCU: 0xEE5A, offset: 0x1FE7E, size: 0x8, addend: 0x0, symName: __ZNSt3__127__do_deallocate_handle_sizeB8ue170006IJEEEvPvmDpT_, symObjAddr: 0x2090, symBinAddr: 0x100003DF0, symSize: 0x20 }
  - { offsetInCU: 0xEE9A, offset: 0x1FEBE, size: 0x8, addend: 0x0, symName: __ZNSt3__124__libcpp_operator_deleteB8ue170006IJPvSt11align_val_tEEEvDpT_, symObjAddr: 0x20B0, symBinAddr: 0x100003E10, symSize: 0x30 }
  - { offsetInCU: 0xEEE4, offset: 0x1FF08, size: 0x8, addend: 0x0, symName: __ZNSt3__124__libcpp_operator_deleteB8ue170006IJPvEEEvDpT_, symObjAddr: 0x20E0, symBinAddr: 0x100003E40, symSize: 0x20 }
  - { offsetInCU: 0xEF1A, offset: 0x1FF3E, size: 0x8, addend: 0x0, symName: __ZNSt3__13maxB8ue170006IdEERKT_S3_S3_, symObjAddr: 0x29B0, symBinAddr: 0x1000045B0, symSize: 0x30 }
  - { offsetInCU: 0xEF5D, offset: 0x1FF81, size: 0x8, addend: 0x0, symName: __ZNSt3__13maxB8ue170006IdNS_6__lessIvvEEEERKT_S5_S5_T0_, symObjAddr: 0x2C70, symBinAddr: 0x1000046F0, symSize: 0x50 }
  - { offsetInCU: 0xF02F, offset: 0x20053, size: 0x8, addend: 0x0, symName: __ZNSt3__15clampB8ue170006IdEERKT_S3_S3_S3_, symObjAddr: 0x2CF0, symBinAddr: 0x100004770, symSize: 0x30 }
  - { offsetInCU: 0xF080, offset: 0x200A4, size: 0x8, addend: 0x0, symName: __ZNSt3__15clampB8ue170006IdNS_6__lessIvvEEEERKT_S5_S5_S5_T0_, symObjAddr: 0x2D50, symBinAddr: 0x1000047D0, symSize: 0x90 }
  - { offsetInCU: 0xF2D2, offset: 0x202F6, size: 0x8, addend: 0x0, symName: __ZNSt3__19use_facetB8ue170006INS_5ctypeIcEEEERKT_RKNS_6localeE, symObjAddr: 0x33A0, symBinAddr: 0x100004DB0, symSize: 0x30 }
  - { offsetInCU: 0xF8CF, offset: 0x208F3, size: 0x8, addend: 0x0, symName: __ZNSt3__13maxB8ue170006ImEERKT_S3_S3_, symObjAddr: 0x3DF0, symBinAddr: 0x100005800, symSize: 0x30 }
  - { offsetInCU: 0xF912, offset: 0x20936, size: 0x8, addend: 0x0, symName: __ZNSt3__13minB8ue170006ImEERKT_S3_S3_, symObjAddr: 0x3E20, symBinAddr: 0x100005830, symSize: 0x30 }
  - { offsetInCU: 0xF955, offset: 0x20979, size: 0x8, addend: 0x0, symName: __ZNSt3__13minB8ue170006ImNS_6__lessIvvEEEERKT_S5_S5_T0_, symObjAddr: 0x3E90, symBinAddr: 0x1000058A0, symSize: 0x50 }
  - { offsetInCU: 0xF9AF, offset: 0x209D3, size: 0x8, addend: 0x0, symName: __ZNSt3__120__throw_length_errorB8ue170006EPKc, symObjAddr: 0x3F60, symBinAddr: 0x100005970, symSize: 0x70 }
  - { offsetInCU: 0xF9DA, offset: 0x209FE, size: 0x8, addend: 0x0, symName: __ZNSt3__13maxB8ue170006ImNS_6__lessIvvEEEERKT_S5_S5_T0_, symObjAddr: 0x4040, symBinAddr: 0x100005A50, symSize: 0x50 }
  - { offsetInCU: 0xFA34, offset: 0x20A58, size: 0x8, addend: 0x0, symName: __ZNSt3__119__allocate_at_leastB8ue170006INS_9allocatorIP6ObjectEEEENS_19__allocation_resultINS_16allocator_traitsIT_E7pointerEEERS7_m, symObjAddr: 0x4190, symBinAddr: 0x100005BA0, symSize: 0x40 }
  - { offsetInCU: 0xFA77, offset: 0x20A9B, size: 0x8, addend: 0x0, symName: __ZNSt3__117__libcpp_allocateB8ue170006Emm, symObjAddr: 0x4300, symBinAddr: 0x100005D10, symSize: 0x60 }
  - { offsetInCU: 0xFAD3, offset: 0x20AF7, size: 0x8, addend: 0x0, symName: __ZNSt3__121__libcpp_operator_newB8ue170006IJmSt11align_val_tEEEPvDpT_, symObjAddr: 0x4360, symBinAddr: 0x100005D70, symSize: 0x30 }
  - { offsetInCU: 0xFB20, offset: 0x20B44, size: 0x8, addend: 0x0, symName: __ZNSt3__121__libcpp_operator_newB8ue170006IJmEEEPvDpT_, symObjAddr: 0x4390, symBinAddr: 0x100005DA0, symSize: 0x20 }
  - { offsetInCU: 0xFB59, offset: 0x20B7D, size: 0x8, addend: 0x0, symName: __ZNSt3__142__uninitialized_allocator_move_if_noexceptB8ue170006INS_9allocatorIP6ObjectEENS_16reverse_iteratorIPS3_EES7_S3_vEET1_RT_T0_SB_S8_, symObjAddr: 0x4410, symBinAddr: 0x100005E20, symSize: 0x70 }
  - { offsetInCU: 0xFBD6, offset: 0x20BFA, size: 0x8, addend: 0x0, symName: __ZNSt3__14swapB8ue170006IPP6ObjectEENS_9enable_ifIXaasr21is_move_constructibleIT_EE5valuesr18is_move_assignableIS5_EE5valueEvE4typeERS5_S8_, symObjAddr: 0x44D0, symBinAddr: 0x100005EE0, symSize: 0x40 }
  - { offsetInCU: 0xFC27, offset: 0x20C4B, size: 0x8, addend: 0x0, symName: __ZNSt3__14moveB8ue170006INS_16reverse_iteratorIPP6ObjectEES5_EET0_T_S7_S6_, symObjAddr: 0x45C0, symBinAddr: 0x100005FD0, symSize: 0x80 }
  - { offsetInCU: 0xFC81, offset: 0x20CA5, size: 0x8, addend: 0x0, symName: __ZNSt3__16__moveB8ue170006INS_17_ClassicAlgPolicyENS_16reverse_iteratorIPP6ObjectEES6_S6_EENS_4pairIT0_T2_EES8_T1_S9_, symObjAddr: 0x4640, symBinAddr: 0x100006050, symSize: 0x90 }
  - { offsetInCU: 0xFCED, offset: 0x20D11, size: 0x8, addend: 0x0, symName: __ZNSt3__123__dispatch_copy_or_moveB8ue170006INS_17_ClassicAlgPolicyENS_11__move_loopIS1_EENS_14__move_trivialENS_16reverse_iteratorIPP6ObjectEES9_S9_EENS_4pairIT2_T4_EESB_T3_SC_, symObjAddr: 0x46D0, symBinAddr: 0x1000060E0, symSize: 0x90 }
  - { offsetInCU: 0xFD6B, offset: 0x20D8F, size: 0x8, addend: 0x0, symName: __ZNSt3__121__unwrap_and_dispatchB8ue170006INS_10__overloadINS_11__move_loopINS_17_ClassicAlgPolicyEEENS_14__move_trivialEEENS_16reverse_iteratorIPP6ObjectEESB_SB_Li0EEENS_4pairIT0_T2_EESD_T1_SE_, symObjAddr: 0x4760, symBinAddr: 0x100006170, symSize: 0x210 }
  - { offsetInCU: 0xFDFB, offset: 0x20E1F, size: 0x8, addend: 0x0, symName: __ZNSt3__114__unwrap_rangeB8ue170006INS_16reverse_iteratorIPP6ObjectEES5_EENS_4pairIT0_S7_EET_S9_, symObjAddr: 0x4970, symBinAddr: 0x100006380, symSize: 0x90 }
  - { offsetInCU: 0xFF77, offset: 0x20F9B, size: 0x8, addend: 0x0, symName: __ZNSt3__113__unwrap_iterB8ue170006INS_16reverse_iteratorIPP6ObjectEENS_18__unwrap_iter_implIS5_Lb0EEELi0EEEDTclsrT0_8__unwrapclsr3stdE7declvalIT_EEEES9_, symObjAddr: 0x4AA0, symBinAddr: 0x1000064B0, symSize: 0x40 }
  - { offsetInCU: 0xFFBC, offset: 0x20FE0, size: 0x8, addend: 0x0, symName: __ZNSt3__19make_pairB8ue170006INS_16reverse_iteratorIPP6ObjectEES5_EENS_4pairINS_18__unwrap_ref_decayIT_E4typeENS7_IT0_E4typeEEEOS8_OSB_, symObjAddr: 0x4AE0, symBinAddr: 0x1000064F0, symSize: 0x30 }
  - { offsetInCU: 0x1000B, offset: 0x2102F, size: 0x8, addend: 0x0, symName: __ZNSt3__114__rewrap_rangeB8ue170006INS_16reverse_iteratorIPP6ObjectEES5_EET_S6_T0_, symObjAddr: 0x4B10, symBinAddr: 0x100006520, symSize: 0x60 }
  - { offsetInCU: 0x10057, offset: 0x2107B, size: 0x8, addend: 0x0, symName: __ZNSt3__113__rewrap_iterB8ue170006INS_16reverse_iteratorIPP6ObjectEES5_NS_18__unwrap_iter_implIS5_Lb0EEEEET_S8_T0_, symObjAddr: 0x4B70, symBinAddr: 0x100006580, symSize: 0x70 }
  - { offsetInCU: 0x100AC, offset: 0x210D0, size: 0x8, addend: 0x0, symName: __ZNSt3__1neB8ue170006IPP6ObjectS3_EEbRKNS_16reverse_iteratorIT_EERKNS4_IT0_EE, symObjAddr: 0x4BE0, symBinAddr: 0x1000065F0, symSize: 0x40 }
  - { offsetInCU: 0x101AC, offset: 0x211D0, size: 0x8, addend: 0x0, symName: __ZNSt3__118__constexpr_strlenB8ue170006EPKc, symObjAddr: 0x4FC0, symBinAddr: 0x1000069D0, symSize: 0x20 }
  - { offsetInCU: 0x101D8, offset: 0x211FC, size: 0x8, addend: 0x0, symName: __ZNSt3__116__pad_and_outputB8ue170006IcNS_11char_traitsIcEEEENS_19ostreambuf_iteratorIT_T0_EES6_PKS4_S8_S8_RNS_8ios_baseES4_, symObjAddr: 0x5240, symBinAddr: 0x100006C50, symSize: 0x220 }
  - { offsetInCU: 0x102AD, offset: 0x212D1, size: 0x8, addend: 0x0, symName: __ZNSt3__112__to_addressB8ue170006IcEEPT_S2_, symObjAddr: 0x5620, symBinAddr: 0x100007030, symSize: 0x10 }
  - { offsetInCU: 0x102E2, offset: 0x21306, size: 0x8, addend: 0x0, symName: __ZNSt3__112__to_addressB8ue170006IKcEEPT_S3_, symObjAddr: 0x57B0, symBinAddr: 0x1000071C0, symSize: 0x10 }
  - { offsetInCU: 0x10832, offset: 0x21856, size: 0x8, addend: 0x0, symName: __ZSt28__throw_bad_array_new_lengthB8ue170006v, symObjAddr: 0x42C0, symBinAddr: 0x100005CD0, symSize: 0x40 }
  - { offsetInCU: 0x1120A, offset: 0x2222E, size: 0x8, addend: 0x0, symName: __ZNSt3__16vectorIP6ObjectNS_9allocatorIS2_EEE26__swap_out_circular_bufferERNS_14__split_bufferIS2_RS4_EE, symObjAddr: 0x3C30, symBinAddr: 0x100005640, symSize: 0x120 }
  - { offsetInCU: 0x13538, offset: 0x2455C, size: 0x8, addend: 0x0, symName: __ZN11FileManagerC2Ev, symObjAddr: 0x30, symBinAddr: 0x100001DC0, symSize: 0x60 }
  - { offsetInCU: 0x13562, offset: 0x24586, size: 0x8, addend: 0x0, symName: __ZNSt3__114basic_ifstreamIcNS_11char_traitsIcEEEC1Ev, symObjAddr: 0x90, symBinAddr: 0x100001E20, symSize: 0xE0 }
  - { offsetInCU: 0x1358D, offset: 0x245B1, size: 0x8, addend: 0x0, symName: __ZNSt3__114basic_ofstreamIcNS_11char_traitsIcEEEC1Ev, symObjAddr: 0x170, symBinAddr: 0x100001F00, symSize: 0xE0 }
  - { offsetInCU: 0x135BD, offset: 0x245E1, size: 0x8, addend: 0x0, symName: __ZNSt3__114basic_ifstreamIcNS_11char_traitsIcEEED1Ev, symObjAddr: 0x250, symBinAddr: 0x100001FE0, symSize: 0x40 }
  - { offsetInCU: 0x135E9, offset: 0x2460D, size: 0x8, addend: 0x0, symName: __ZN11FileManagerC1Ev, symObjAddr: 0x290, symBinAddr: 0x100002020, symSize: 0x20 }
  - { offsetInCU: 0x13613, offset: 0x24637, size: 0x8, addend: 0x0, symName: __ZN11FileManager8readFileERKNSt3__112basic_stringIcNS0_11char_traitsIcEENS0_9allocatorIcEEEE, symObjAddr: 0x2B0, symBinAddr: 0x100002040, symSize: 0x1D0 }
  - { offsetInCU: 0x13663, offset: 0x24687, size: 0x8, addend: 0x0, symName: __ZNSt3__112basic_stringIcNS_11char_traitsIcEENS_9allocatorIcEEEC1B8ue170006Ev, symObjAddr: 0x480, symBinAddr: 0x100002210, symSize: 0x20 }
  - { offsetInCU: 0x1368B, offset: 0x246AF, size: 0x8, addend: 0x0, symName: __ZN11FileManager11parseCameraEv, symObjAddr: 0x4A0, symBinAddr: 0x100002230, symSize: 0x220 }
  - { offsetInCU: 0x13716, offset: 0x2473A, size: 0x8, addend: 0x0, symName: __ZN11EnvironmentC1EP6Camera, symObjAddr: 0x6C0, symBinAddr: 0x100002450, symSize: 0x30 }
  - { offsetInCU: 0x1374B, offset: 0x2476F, size: 0x8, addend: 0x0, symName: __ZrsRNSt3__113basic_istreamIcNS_11char_traitsIcEEEER4Vec3IdE, symObjAddr: 0x6F0, symBinAddr: 0x100002480, symSize: 0x50 }
  - { offsetInCU: 0x13786, offset: 0x247AA, size: 0x8, addend: 0x0, symName: __ZN11FileManager12parseObjectsEv, symObjAddr: 0xA30, symBinAddr: 0x1000027C0, symSize: 0x1D0 }
  - { offsetInCU: 0x137D6, offset: 0x247FA, size: 0x8, addend: 0x0, symName: __ZNSt3__114basic_ifstreamIcNS_11char_traitsIcEEE5closeEv, symObjAddr: 0xC00, symBinAddr: 0x100002990, symSize: 0x50 }
  - { offsetInCU: 0x137FD, offset: 0x24821, size: 0x8, addend: 0x0, symName: __ZN4Vec3IdEC1Ev, symObjAddr: 0xC50, symBinAddr: 0x1000029E0, symSize: 0x20 }
  - { offsetInCU: 0x13825, offset: 0x24849, size: 0x8, addend: 0x0, symName: __ZN6CameraC1ERKdS1_RK4Vec3IdES5_S5_S1_, symObjAddr: 0xC70, symBinAddr: 0x100002A00, symSize: 0x50 }
  - { offsetInCU: 0x138A1, offset: 0x248C5, size: 0x8, addend: 0x0, symName: __ZNKSt3__19basic_iosIcNS_11char_traitsIcEEE3eofB8ue170006Ev, symObjAddr: 0xCC0, symBinAddr: 0x100002A50, symSize: 0x20 }
  - { offsetInCU: 0x138C5, offset: 0x248E9, size: 0x8, addend: 0x0, symName: __ZN11FileManager11parseObjectENSt3__112basic_stringIcNS0_11char_traitsIcEENS0_9allocatorIcEEEE, symObjAddr: 0xCE0, symBinAddr: 0x100002A70, symSize: 0x90 }
  - { offsetInCU: 0x13908, offset: 0x2492C, size: 0x8, addend: 0x0, symName: __ZN11FileManager13parseMaterialENSt3__112basic_stringIcNS0_11char_traitsIcEENS0_9allocatorIcEEEE, symObjAddr: 0xD70, symBinAddr: 0x100002B00, symSize: 0x90 }
  - { offsetInCU: 0x1394B, offset: 0x2496F, size: 0x8, addend: 0x0, symName: __ZNSt3__16vectorIP6ObjectNS_9allocatorIS2_EEE9push_backB8ue170006ERKS2_, symObjAddr: 0xE00, symBinAddr: 0x100002B90, symSize: 0x60 }
  - { offsetInCU: 0x13981, offset: 0x249A5, size: 0x8, addend: 0x0, symName: __ZN11FileManager11parseSphereEv, symObjAddr: 0xEF0, symBinAddr: 0x100002C80, symSize: 0x120 }
  - { offsetInCU: 0x139D2, offset: 0x249F6, size: 0x8, addend: 0x0, symName: __ZN11FileManager13parseTriangleEv, symObjAddr: 0x1010, symBinAddr: 0x100002DA0, symSize: 0x130 }
  - { offsetInCU: 0x13A23, offset: 0x24A47, size: 0x8, addend: 0x0, symName: __ZN8TriangleC1E4Vec3IdES1_S1_, symObjAddr: 0x1170, symBinAddr: 0x100002ED0, symSize: 0x30 }
  - { offsetInCU: 0x13A78, offset: 0x24A9C, size: 0x8, addend: 0x0, symName: __ZN11FileManager20parseDiffuseMaterialEv, symObjAddr: 0x11A0, symBinAddr: 0x100002F00, symSize: 0x170 }
  - { offsetInCU: 0x13AD8, offset: 0x24AFC, size: 0x8, addend: 0x0, symName: __ZN11FileManager23parseReflectiveMaterialEv, symObjAddr: 0x1310, symBinAddr: 0x100003070, symSize: 0xC0 }
  - { offsetInCU: 0x13B1A, offset: 0x24B3E, size: 0x8, addend: 0x0, symName: __ZN7DiffuseC1E4Vec3IdES1_d, symObjAddr: 0x13D0, symBinAddr: 0x100003130, symSize: 0x30 }
  - { offsetInCU: 0x13B6E, offset: 0x24B92, size: 0x8, addend: 0x0, symName: __ZN10ReflectiveC1E4Vec3IdE, symObjAddr: 0x1400, symBinAddr: 0x100003160, symSize: 0x20 }
  - { offsetInCU: 0x13BA5, offset: 0x24BC9, size: 0x8, addend: 0x0, symName: __ZN11FileManager14prepOutputFileERKNSt3__112basic_stringIcNS0_11char_traitsIcEENS0_9allocatorIcEEEERKiSA_SA_, symObjAddr: 0x1420, symBinAddr: 0x100003180, symSize: 0x100 }
  - { offsetInCU: 0x13C03, offset: 0x24C27, size: 0x8, addend: 0x0, symName: __ZN11FileManager8addColorERK4Vec3IiE, symObjAddr: 0x15E0, symBinAddr: 0x100003340, symSize: 0x40 }
  - { offsetInCU: 0x13C36, offset: 0x24C5A, size: 0x8, addend: 0x0, symName: __ZlsRNSt3__113basic_ostreamIcNS_11char_traitsIcEEEERK4Vec3IiE, symObjAddr: 0x1620, symBinAddr: 0x100003380, symSize: 0x70 }
  - { offsetInCU: 0x13C71, offset: 0x24C95, size: 0x8, addend: 0x0, symName: __ZN11FileManager11closeOutputEv, symObjAddr: 0x1690, symBinAddr: 0x1000033F0, symSize: 0x30 }
  - { offsetInCU: 0x13C97, offset: 0x24CBB, size: 0x8, addend: 0x0, symName: __ZNSt3__114basic_ofstreamIcNS_11char_traitsIcEEE5closeEv, symObjAddr: 0x16C0, symBinAddr: 0x100003420, symSize: 0x50 }
  - { offsetInCU: 0x13CBE, offset: 0x24CE2, size: 0x8, addend: 0x0, symName: __ZNSt3__114basic_ifstreamIcNS_11char_traitsIcEEED2Ev, symObjAddr: 0x1710, symBinAddr: 0x100003470, symSize: 0x60 }
  - { offsetInCU: 0x13CF6, offset: 0x24D1A, size: 0x8, addend: 0x0, symName: __ZTv0_n24_NSt3__114basic_ifstreamIcNS_11char_traitsIcEEED1Ev, symObjAddr: 0x1770, symBinAddr: 0x1000034D0, symSize: 0x20 }
  - { offsetInCU: 0x13D0D, offset: 0x24D31, size: 0x8, addend: 0x0, symName: __ZN11EnvironmentC2EP6Camera, symObjAddr: 0x1790, symBinAddr: 0x1000034F0, symSize: 0x180 }
  - { offsetInCU: 0x13D43, offset: 0x24D67, size: 0x8, addend: 0x0, symName: __ZNSt3__16vectorIP6ObjectNS_9allocatorIS2_EEEC1B8ue170006Ev, symObjAddr: 0x1910, symBinAddr: 0x100003670, symSize: 0x20 }
  - { offsetInCU: 0x13D6B, offset: 0x24D8F, size: 0x8, addend: 0x0, symName: __ZNSt3__16vectorIP6ObjectNS_9allocatorIS2_EEEaSB8ue170006EOS5_, symObjAddr: 0x1930, symBinAddr: 0x100003690, symSize: 0x30 }
  - { offsetInCU: 0x13DA1, offset: 0x24DC5, size: 0x8, addend: 0x0, symName: __ZNSt3__16vectorIP6ObjectNS_9allocatorIS2_EEED1B8ue170006Ev, symObjAddr: 0x1960, symBinAddr: 0x1000036C0, symSize: 0x20 }
  - { offsetInCU: 0x13DC9, offset: 0x24DED, size: 0x8, addend: 0x0, symName: __ZNSt3__16vectorIP6ObjectNS_9allocatorIS2_EEEC2B8ue170006Ev, symObjAddr: 0x1980, symBinAddr: 0x1000036E0, symSize: 0x50 }
  - { offsetInCU: 0x13DFD, offset: 0x24E21, size: 0x8, addend: 0x0, symName: __ZNSt3__117__compressed_pairIPP6ObjectNS_9allocatorIS2_EEEC1B8ue170006IDnNS_18__default_init_tagEEEOT_OT0_, symObjAddr: 0x19D0, symBinAddr: 0x100003730, symSize: 0x30 }
  - { offsetInCU: 0x13E53, offset: 0x24E77, size: 0x8, addend: 0x0, symName: __ZNSt3__117__compressed_pairIPP6ObjectNS_9allocatorIS2_EEEC2B8ue170006IDnNS_18__default_init_tagEEEOT_OT0_, symObjAddr: 0x1A10, symBinAddr: 0x100003770, symSize: 0x40 }
  - { offsetInCU: 0x13EA9, offset: 0x24ECD, size: 0x8, addend: 0x0, symName: __ZNSt3__122__compressed_pair_elemIPP6ObjectLi0ELb0EEC2B8ue170006IDnvEEOT_, symObjAddr: 0x1A50, symBinAddr: 0x1000037B0, symSize: 0x20 }
  - { offsetInCU: 0x13EE9, offset: 0x24F0D, size: 0x8, addend: 0x0, symName: __ZNSt3__122__compressed_pair_elemINS_9allocatorIP6ObjectEELi1ELb1EEC2B8ue170006ENS_18__default_init_tagE, symObjAddr: 0x1A70, symBinAddr: 0x1000037D0, symSize: 0x20 }
  - { offsetInCU: 0x13F1C, offset: 0x24F40, size: 0x8, addend: 0x0, symName: __ZNSt3__19allocatorIP6ObjectEC2B8ue170006Ev, symObjAddr: 0x1A90, symBinAddr: 0x1000037F0, symSize: 0x20 }
  - { offsetInCU: 0x13F44, offset: 0x24F68, size: 0x8, addend: 0x0, symName: __ZNSt3__116__non_trivial_ifILb1ENS_9allocatorIP6ObjectEEEC2B8ue170006Ev, symObjAddr: 0x1AB0, symBinAddr: 0x100003810, symSize: 0x10 }
  - { offsetInCU: 0x13F6C, offset: 0x24F90, size: 0x8, addend: 0x0, symName: __ZNSt3__16vectorIP6ObjectNS_9allocatorIS2_EEE13__move_assignERS5_NS_17integral_constantIbLb1EEE, symObjAddr: 0x1AC0, symBinAddr: 0x100003820, symSize: 0xA0 }
  - { offsetInCU: 0x13FAE, offset: 0x24FD2, size: 0x8, addend: 0x0, symName: __ZNSt3__16vectorIP6ObjectNS_9allocatorIS2_EEE13__vdeallocateEv, symObjAddr: 0x1B60, symBinAddr: 0x1000038C0, symSize: 0x90 }
  - { offsetInCU: 0x13FD5, offset: 0x24FF9, size: 0x8, addend: 0x0, symName: __ZNSt3__16vectorIP6ObjectNS_9allocatorIS2_EEE19__move_assign_allocB8ue170006ERS5_, symObjAddr: 0x1BF0, symBinAddr: 0x100003950, symSize: 0x30 }
  - { offsetInCU: 0x14008, offset: 0x2502C, size: 0x8, addend: 0x0, symName: __ZNSt3__16vectorIP6ObjectNS_9allocatorIS2_EEE9__end_capB8ue170006Ev, symObjAddr: 0x1C20, symBinAddr: 0x100003980, symSize: 0x20 }
  - { offsetInCU: 0x1402C, offset: 0x25050, size: 0x8, addend: 0x0, symName: __ZNSt3__16vectorIP6ObjectNS_9allocatorIS2_EEE5clearB8ue170006Ev, symObjAddr: 0x1C40, symBinAddr: 0x1000039A0, symSize: 0x40 }
  - { offsetInCU: 0x14060, offset: 0x25084, size: 0x8, addend: 0x0, symName: __ZNKSt3__16vectorIP6ObjectNS_9allocatorIS2_EEE17__annotate_deleteB8ue170006Ev, symObjAddr: 0x1C80, symBinAddr: 0x1000039E0, symSize: 0xB0 }
  - { offsetInCU: 0x14084, offset: 0x250A8, size: 0x8, addend: 0x0, symName: __ZNSt3__116allocator_traitsINS_9allocatorIP6ObjectEEE10deallocateB8ue170006ERS4_PS3_m, symObjAddr: 0x1D30, symBinAddr: 0x100003A90, symSize: 0x30 }
  - { offsetInCU: 0x140C6, offset: 0x250EA, size: 0x8, addend: 0x0, symName: __ZNSt3__16vectorIP6ObjectNS_9allocatorIS2_EEE7__allocB8ue170006Ev, symObjAddr: 0x1D60, symBinAddr: 0x100003AC0, symSize: 0x20 }
  - { offsetInCU: 0x140EA, offset: 0x2510E, size: 0x8, addend: 0x0, symName: __ZNKSt3__16vectorIP6ObjectNS_9allocatorIS2_EEE8capacityB8ue170006Ev, symObjAddr: 0x1D80, symBinAddr: 0x100003AE0, symSize: 0x30 }
  - { offsetInCU: 0x1410E, offset: 0x25132, size: 0x8, addend: 0x0, symName: __ZNKSt3__16vectorIP6ObjectNS_9allocatorIS2_EEE4sizeB8ue170006Ev, symObjAddr: 0x1DB0, symBinAddr: 0x100003B10, symSize: 0x20 }
  - { offsetInCU: 0x14132, offset: 0x25156, size: 0x8, addend: 0x0, symName: __ZNSt3__16vectorIP6ObjectNS_9allocatorIS2_EEE7__clearB8ue170006Ev, symObjAddr: 0x1DD0, symBinAddr: 0x100003B30, symSize: 0x20 }
  - { offsetInCU: 0x14156, offset: 0x2517A, size: 0x8, addend: 0x0, symName: __ZNKSt3__16vectorIP6ObjectNS_9allocatorIS2_EEE17__annotate_shrinkB8ue170006Em, symObjAddr: 0x1DF0, symBinAddr: 0x100003B50, symSize: 0xA0 }
  - { offsetInCU: 0x14189, offset: 0x251AD, size: 0x8, addend: 0x0, symName: __ZNSt3__16vectorIP6ObjectNS_9allocatorIS2_EEE22__base_destruct_at_endB8ue170006EPS2_, symObjAddr: 0x1E90, symBinAddr: 0x100003BF0, symSize: 0x80 }
  - { offsetInCU: 0x141CC, offset: 0x251F0, size: 0x8, addend: 0x0, symName: __ZNSt3__116allocator_traitsINS_9allocatorIP6ObjectEEE7destroyB8ue170006IS3_vEEvRS4_PT_, symObjAddr: 0x1F10, symBinAddr: 0x100003C70, symSize: 0x30 }
  - { offsetInCU: 0x14209, offset: 0x2522D, size: 0x8, addend: 0x0, symName: __ZNSt3__19allocatorIP6ObjectE7destroyB8ue170006EPS2_, symObjAddr: 0x1F50, symBinAddr: 0x100003CB0, symSize: 0x10 }
  - { offsetInCU: 0x1423B, offset: 0x2525F, size: 0x8, addend: 0x0, symName: __ZNKSt3__16vectorIP6ObjectNS_9allocatorIS2_EEE31__annotate_contiguous_containerB8ue170006EPKvS7_S7_S7_, symObjAddr: 0x1F60, symBinAddr: 0x100003CC0, symSize: 0x20 }
  - { offsetInCU: 0x1428F, offset: 0x252B3, size: 0x8, addend: 0x0, symName: __ZNKSt3__16vectorIP6ObjectNS_9allocatorIS2_EEE4dataB8ue170006Ev, symObjAddr: 0x1F80, symBinAddr: 0x100003CE0, symSize: 0x20 }
  - { offsetInCU: 0x142B3, offset: 0x252D7, size: 0x8, addend: 0x0, symName: __ZNSt3__19allocatorIP6ObjectE10deallocateB8ue170006EPS2_m, symObjAddr: 0x1FA0, symBinAddr: 0x100003D00, symSize: 0x40 }
  - { offsetInCU: 0x142F3, offset: 0x25317, size: 0x8, addend: 0x0, symName: __ZNSt3__117__compressed_pairIPP6ObjectNS_9allocatorIS2_EEE6secondB8ue170006Ev, symObjAddr: 0x2100, symBinAddr: 0x100003E60, symSize: 0x20 }
  - { offsetInCU: 0x14317, offset: 0x2533B, size: 0x8, addend: 0x0, symName: __ZNSt3__122__compressed_pair_elemINS_9allocatorIP6ObjectEELi1ELb1EE5__getB8ue170006Ev, symObjAddr: 0x2120, symBinAddr: 0x100003E80, symSize: 0x10 }
  - { offsetInCU: 0x1433B, offset: 0x2535F, size: 0x8, addend: 0x0, symName: __ZNKSt3__16vectorIP6ObjectNS_9allocatorIS2_EEE9__end_capB8ue170006Ev, symObjAddr: 0x2130, symBinAddr: 0x100003E90, symSize: 0x20 }
  - { offsetInCU: 0x1435F, offset: 0x25383, size: 0x8, addend: 0x0, symName: __ZNKSt3__117__compressed_pairIPP6ObjectNS_9allocatorIS2_EEE5firstB8ue170006Ev, symObjAddr: 0x2150, symBinAddr: 0x100003EB0, symSize: 0x20 }
  - { offsetInCU: 0x14383, offset: 0x253A7, size: 0x8, addend: 0x0, symName: __ZNKSt3__122__compressed_pair_elemIPP6ObjectLi0ELb0EE5__getB8ue170006Ev, symObjAddr: 0x2170, symBinAddr: 0x100003ED0, symSize: 0x10 }
  - { offsetInCU: 0x143A7, offset: 0x253CB, size: 0x8, addend: 0x0, symName: __ZNSt3__16vectorIP6ObjectNS_9allocatorIS2_EEE19__move_assign_allocB8ue170006ERS5_NS_17integral_constantIbLb1EEE, symObjAddr: 0x2180, symBinAddr: 0x100003EE0, symSize: 0x30 }
  - { offsetInCU: 0x143E6, offset: 0x2540A, size: 0x8, addend: 0x0, symName: __ZNSt3__117__compressed_pairIPP6ObjectNS_9allocatorIS2_EEE5firstB8ue170006Ev, symObjAddr: 0x21B0, symBinAddr: 0x100003F10, symSize: 0x20 }
  - { offsetInCU: 0x1440A, offset: 0x2542E, size: 0x8, addend: 0x0, symName: __ZNSt3__122__compressed_pair_elemIPP6ObjectLi0ELb0EE5__getB8ue170006Ev, symObjAddr: 0x21D0, symBinAddr: 0x100003F30, symSize: 0x10 }
  - { offsetInCU: 0x1442E, offset: 0x25452, size: 0x8, addend: 0x0, symName: __ZNSt3__16vectorIP6ObjectNS_9allocatorIS2_EEED2B8ue170006Ev, symObjAddr: 0x21E0, symBinAddr: 0x100003F40, symSize: 0x40 }
  - { offsetInCU: 0x14456, offset: 0x2547A, size: 0x8, addend: 0x0, symName: __ZNSt3__16vectorIP6ObjectNS_9allocatorIS2_EEE16__destroy_vectorC1B8ue170006ERS5_, symObjAddr: 0x2220, symBinAddr: 0x100003F80, symSize: 0x30 }
  - { offsetInCU: 0x1448D, offset: 0x254B1, size: 0x8, addend: 0x0, symName: __ZNSt3__16vectorIP6ObjectNS_9allocatorIS2_EEE16__destroy_vectorclB8ue170006Ev, symObjAddr: 0x2250, symBinAddr: 0x100003FB0, symSize: 0x80 }
  - { offsetInCU: 0x144B1, offset: 0x254D5, size: 0x8, addend: 0x0, symName: __ZNSt3__16vectorIP6ObjectNS_9allocatorIS2_EEE16__destroy_vectorC2B8ue170006ERS5_, symObjAddr: 0x22D0, symBinAddr: 0x100004030, symSize: 0x20 }
  - { offsetInCU: 0x144E8, offset: 0x2550C, size: 0x8, addend: 0x0, symName: __ZN6CameraC2ERKdS1_RK4Vec3IdES5_S5_S1_, symObjAddr: 0x22F0, symBinAddr: 0x100004050, symSize: 0xF0 }
  - { offsetInCU: 0x14564, offset: 0x25588, size: 0x8, addend: 0x0, symName: __ZN8TriangleC2E4Vec3IdES1_S1_, symObjAddr: 0x23E0, symBinAddr: 0x100004140, symSize: 0x80 }
  - { offsetInCU: 0x145B9, offset: 0x255DD, size: 0x8, addend: 0x0, symName: __ZN7DiffuseC2E4Vec3IdES1_d, symObjAddr: 0x2480, symBinAddr: 0x1000041C0, symSize: 0x80 }
  - { offsetInCU: 0x1460D, offset: 0x25631, size: 0x8, addend: 0x0, symName: __ZN8MaterialC2Ev, symObjAddr: 0x2500, symBinAddr: 0x100004240, symSize: 0x20 }
  - { offsetInCU: 0x14637, offset: 0x2565B, size: 0x8, addend: 0x0, symName: __ZN7Diffuse12computeColorERK4Vec3IdES3_RK9DirectionRK5LightRKbS3_, symObjAddr: 0x2520, symBinAddr: 0x100004260, symSize: 0x350 }
  - { offsetInCU: 0x14718, offset: 0x2573C, size: 0x8, addend: 0x0, symName: __ZNK4Vec3IdEmlERKS0_, symObjAddr: 0x29E0, symBinAddr: 0x1000045E0, symSize: 0x60 }
  - { offsetInCU: 0x14749, offset: 0x2576D, size: 0x8, addend: 0x0, symName: __Z5boundRK4Vec3IdERKdS4_, symObjAddr: 0x2A40, symBinAddr: 0x100004640, symSize: 0xB0 }
  - { offsetInCU: 0x1479C, offset: 0x257C0, size: 0x8, addend: 0x0, symName: __ZNKSt3__16__lessIvvEclB8ue170006IddEEbRKT_RKT0_, symObjAddr: 0x2CC0, symBinAddr: 0x100004740, symSize: 0x30 }
  - { offsetInCU: 0x147EE, offset: 0x25812, size: 0x8, addend: 0x0, symName: __ZN4Vec3IiEC1Eiii, symObjAddr: 0x2D20, symBinAddr: 0x1000047A0, symSize: 0x30 }
  - { offsetInCU: 0x14840, offset: 0x25864, size: 0x8, addend: 0x0, symName: __ZN4Vec3IiEC2Eiii, symObjAddr: 0x2DE0, symBinAddr: 0x100004860, symSize: 0x30 }
  - { offsetInCU: 0x14892, offset: 0x258B6, size: 0x8, addend: 0x0, symName: __ZN10ReflectiveC2E4Vec3IdE, symObjAddr: 0x2E10, symBinAddr: 0x100004890, symSize: 0x50 }
  - { offsetInCU: 0x148C9, offset: 0x258ED, size: 0x8, addend: 0x0, symName: __ZN10Reflective12computeColorERK4Vec3IdES3_RK9DirectionRK5LightRKbS3_, symObjAddr: 0x2E60, symBinAddr: 0x1000048E0, symSize: 0x70 }
  - { offsetInCU: 0x14941, offset: 0x25965, size: 0x8, addend: 0x0, symName: __ZNSt3__112basic_stringIcNS_11char_traitsIcEENS_9allocatorIcEEEC2B8ue170006Ev, symObjAddr: 0x2ED0, symBinAddr: 0x100004950, symSize: 0x50 }
  - { offsetInCU: 0x14969, offset: 0x2598D, size: 0x8, addend: 0x0, symName: __ZNSt3__117__compressed_pairINS_12basic_stringIcNS_11char_traitsIcEENS_9allocatorIcEEE5__repES5_EC1B8ue170006INS_18__default_init_tagESA_EEOT_OT0_, symObjAddr: 0x2F20, symBinAddr: 0x1000049A0, symSize: 0x30 }
  - { offsetInCU: 0x149BF, offset: 0x259E3, size: 0x8, addend: 0x0, symName: __ZNSt3__112basic_stringIcNS_11char_traitsIcEENS_9allocatorIcEEE14__default_initB8ue170006Ev, symObjAddr: 0x2F50, symBinAddr: 0x1000049D0, symSize: 0x50 }
  - { offsetInCU: 0x149E3, offset: 0x25A07, size: 0x8, addend: 0x0, symName: __ZNSt3__117__compressed_pairINS_12basic_stringIcNS_11char_traitsIcEENS_9allocatorIcEEE5__repES5_EC2B8ue170006INS_18__default_init_tagESA_EEOT_OT0_, symObjAddr: 0x2FA0, symBinAddr: 0x100004A20, symSize: 0x30 }
  - { offsetInCU: 0x14A39, offset: 0x25A5D, size: 0x8, addend: 0x0, symName: __ZNSt3__122__compressed_pair_elemINS_12basic_stringIcNS_11char_traitsIcEENS_9allocatorIcEEE5__repELi0ELb0EEC2B8ue170006ENS_18__default_init_tagE, symObjAddr: 0x2FD0, symBinAddr: 0x100004A50, symSize: 0x10 }
  - { offsetInCU: 0x14A6C, offset: 0x25A90, size: 0x8, addend: 0x0, symName: __ZNSt3__122__compressed_pair_elemINS_9allocatorIcEELi1ELb1EEC2B8ue170006ENS_18__default_init_tagE, symObjAddr: 0x2FE0, symBinAddr: 0x100004A60, symSize: 0x20 }
  - { offsetInCU: 0x14A9F, offset: 0x25AC3, size: 0x8, addend: 0x0, symName: __ZNSt3__19allocatorIcEC2B8ue170006Ev, symObjAddr: 0x3000, symBinAddr: 0x100004A80, symSize: 0x20 }
  - { offsetInCU: 0x14AC7, offset: 0x25AEB, size: 0x8, addend: 0x0, symName: __ZNSt3__116__non_trivial_ifILb1ENS_9allocatorIcEEEC2B8ue170006Ev, symObjAddr: 0x3020, symBinAddr: 0x100004AA0, symSize: 0x10 }
  - { offsetInCU: 0x14AEF, offset: 0x25B13, size: 0x8, addend: 0x0, symName: __ZNSt3__117__compressed_pairINS_12basic_stringIcNS_11char_traitsIcEENS_9allocatorIcEEE5__repES5_E5firstB8ue170006Ev, symObjAddr: 0x3030, symBinAddr: 0x100004AB0, symSize: 0x20 }
  - { offsetInCU: 0x14B13, offset: 0x25B37, size: 0x8, addend: 0x0, symName: __ZNSt3__122__compressed_pair_elemINS_12basic_stringIcNS_11char_traitsIcEENS_9allocatorIcEEE5__repELi0ELb0EE5__getB8ue170006Ev, symObjAddr: 0x3050, symBinAddr: 0x100004AD0, symSize: 0x10 }
  - { offsetInCU: 0x14B37, offset: 0x25B5B, size: 0x8, addend: 0x0, symName: __ZNSt3__19basic_iosIcNS_11char_traitsIcEEEC2B8ue170006Ev, symObjAddr: 0x30D0, symBinAddr: 0x100004AE0, symSize: 0x40 }
  - { offsetInCU: 0x14B5F, offset: 0x25B83, size: 0x8, addend: 0x0, symName: __ZNSt3__113basic_istreamIcNS_11char_traitsIcEEEC2B8ue170006EPNS_15basic_streambufIcS2_EE, symObjAddr: 0x3110, symBinAddr: 0x100004B20, symSize: 0x50 }
  - { offsetInCU: 0x14BA1, offset: 0x25BC5, size: 0x8, addend: 0x0, symName: __ZNSt3__18ios_baseC2B8ue170006Ev, symObjAddr: 0x3160, symBinAddr: 0x100004B70, symSize: 0x20 }
  - { offsetInCU: 0x14BC9, offset: 0x25BED, size: 0x8, addend: 0x0, symName: __ZNSt3__19basic_iosIcNS_11char_traitsIcEEE4initB8ue170006EPNS_15basic_streambufIcS2_EE, symObjAddr: 0x3180, symBinAddr: 0x100004B90, symSize: 0x50 }
  - { offsetInCU: 0x14BFF, offset: 0x25C23, size: 0x8, addend: 0x0, symName: __ZNSt3__111char_traitsIcE3eofB8ue170006Ev, symObjAddr: 0x31D0, symBinAddr: 0x100004BE0, symSize: 0x10 }
  - { offsetInCU: 0x14C13, offset: 0x25C37, size: 0x8, addend: 0x0, symName: __ZNSt3__113basic_ostreamIcNS_11char_traitsIcEEEC2B8ue170006EPNS_15basic_streambufIcS2_EE, symObjAddr: 0x31E0, symBinAddr: 0x100004BF0, symSize: 0x50 }
  - { offsetInCU: 0x14C73, offset: 0x25C97, size: 0x8, addend: 0x0, symName: __ZNKSt3__113basic_istreamIcNS_11char_traitsIcEEE6sentrycvbB8ue170006Ev, symObjAddr: 0x3230, symBinAddr: 0x100004C40, symSize: 0x20 }
  - { offsetInCU: 0x14C97, offset: 0x25CBB, size: 0x8, addend: 0x0, symName: __ZNSt3__112basic_stringIcNS_11char_traitsIcEENS_9allocatorIcEEE5clearB8ue170006Ev, symObjAddr: 0x3250, symBinAddr: 0x100004C60, symSize: 0x80 }
  - { offsetInCU: 0x14CBE, offset: 0x25CE2, size: 0x8, addend: 0x0, symName: __ZNKSt3__18ios_base5widthB8ue170006Ev, symObjAddr: 0x32D0, symBinAddr: 0x100004CE0, symSize: 0x20 }
  - { offsetInCU: 0x14CE5, offset: 0x25D09, size: 0x8, addend: 0x0, symName: __ZNKSt3__112basic_stringIcNS_11char_traitsIcEENS_9allocatorIcEEE8max_sizeB8ue170006Ev, symObjAddr: 0x32F0, symBinAddr: 0x100004D00, symSize: 0xA0 }
  - { offsetInCU: 0x14D38, offset: 0x25D5C, size: 0x8, addend: 0x0, symName: __ZNSt3__114numeric_limitsIlE3maxB8ue170006Ev, symObjAddr: 0x3390, symBinAddr: 0x100004DA0, symSize: 0x10 }
  - { offsetInCU: 0x14D4C, offset: 0x25D70, size: 0x8, addend: 0x0, symName: __ZNKSt3__19basic_iosIcNS_11char_traitsIcEEE5rdbufB8ue170006Ev, symObjAddr: 0x33D0, symBinAddr: 0x100004DE0, symSize: 0x20 }
  - { offsetInCU: 0x14D73, offset: 0x25D97, size: 0x8, addend: 0x0, symName: __ZNSt3__115basic_streambufIcNS_11char_traitsIcEEE5sgetcB8ue170006Ev, symObjAddr: 0x33F0, symBinAddr: 0x100004E00, symSize: 0x50 }
  - { offsetInCU: 0x14D97, offset: 0x25DBB, size: 0x8, addend: 0x0, symName: __ZNSt3__111char_traitsIcE11eq_int_typeB8ue170006Eii, symObjAddr: 0x3440, symBinAddr: 0x100004E50, symSize: 0x20 }
  - { offsetInCU: 0x14DCA, offset: 0x25DEE, size: 0x8, addend: 0x0, symName: __ZNSt3__111char_traitsIcE12to_char_typeB8ue170006Ei, symObjAddr: 0x3460, symBinAddr: 0x100004E70, symSize: 0x10 }
  - { offsetInCU: 0x14E1A, offset: 0x25E3E, size: 0x8, addend: 0x0, symName: __ZNKSt3__15ctypeIcE2isB8ue170006Ejc, symObjAddr: 0x3470, symBinAddr: 0x100004E80, symSize: 0x70 }
  - { offsetInCU: 0x14E5C, offset: 0x25E80, size: 0x8, addend: 0x0, symName: __ZNSt3__115basic_streambufIcNS_11char_traitsIcEEE6sbumpcB8ue170006Ev, symObjAddr: 0x34E0, symBinAddr: 0x100004EF0, symSize: 0x60 }
  - { offsetInCU: 0x14E80, offset: 0x25EA4, size: 0x8, addend: 0x0, symName: __ZNSt3__18ios_base5widthB8ue170006El, symObjAddr: 0x3540, symBinAddr: 0x100004F50, symSize: 0x30 }
  - { offsetInCU: 0x14EC6, offset: 0x25EEA, size: 0x8, addend: 0x0, symName: __ZNSt3__18ios_base18__setstate_nothrowB8ue170006Ej, symObjAddr: 0x3570, symBinAddr: 0x100004F80, symSize: 0x50 }
  - { offsetInCU: 0x14EF9, offset: 0x25F1D, size: 0x8, addend: 0x0, symName: __ZNKSt3__19basic_iosIcNS_11char_traitsIcEEE10exceptionsB8ue170006Ev, symObjAddr: 0x35C0, symBinAddr: 0x100004FD0, symSize: 0x20 }
  - { offsetInCU: 0x14F1D, offset: 0x25F41, size: 0x8, addend: 0x0, symName: __ZNSt3__19basic_iosIcNS_11char_traitsIcEEE8setstateB8ue170006Ej, symObjAddr: 0x35E0, symBinAddr: 0x100004FF0, symSize: 0x30 }
  - { offsetInCU: 0x14F50, offset: 0x25F74, size: 0x8, addend: 0x0, symName: __ZNKSt3__112basic_stringIcNS_11char_traitsIcEENS_9allocatorIcEEE9__is_longB8ue170006Ev, symObjAddr: 0x3610, symBinAddr: 0x100005020, symSize: 0x30 }
  - { offsetInCU: 0x14F74, offset: 0x25F98, size: 0x8, addend: 0x0, symName: __ZNSt3__111char_traitsIcE6assignB8ue170006ERcRKc, symObjAddr: 0x3640, symBinAddr: 0x100005050, symSize: 0x20 }
  - { offsetInCU: 0x14FA5, offset: 0x25FC9, size: 0x8, addend: 0x0, symName: __ZNSt3__112basic_stringIcNS_11char_traitsIcEENS_9allocatorIcEEE18__get_long_pointerB8ue170006Ev, symObjAddr: 0x3660, symBinAddr: 0x100005070, symSize: 0x20 }
  - { offsetInCU: 0x14FC9, offset: 0x25FED, size: 0x8, addend: 0x0, symName: __ZNSt3__112basic_stringIcNS_11char_traitsIcEENS_9allocatorIcEEE15__set_long_sizeB8ue170006Em, symObjAddr: 0x3680, symBinAddr: 0x100005090, symSize: 0x30 }
  - { offsetInCU: 0x14FFC, offset: 0x26020, size: 0x8, addend: 0x0, symName: __ZNSt3__112basic_stringIcNS_11char_traitsIcEENS_9allocatorIcEEE19__get_short_pointerB8ue170006Ev, symObjAddr: 0x36B0, symBinAddr: 0x1000050C0, symSize: 0x30 }
  - { offsetInCU: 0x15020, offset: 0x26044, size: 0x8, addend: 0x0, symName: __ZNSt3__112basic_stringIcNS_11char_traitsIcEENS_9allocatorIcEEE16__set_short_sizeB8ue170006Em, symObjAddr: 0x36E0, symBinAddr: 0x1000050F0, symSize: 0x50 }
  - { offsetInCU: 0x15053, offset: 0x26077, size: 0x8, addend: 0x0, symName: __ZNKSt3__117__compressed_pairINS_12basic_stringIcNS_11char_traitsIcEENS_9allocatorIcEEE5__repES5_E5firstB8ue170006Ev, symObjAddr: 0x3730, symBinAddr: 0x100005140, symSize: 0x20 }
  - { offsetInCU: 0x15077, offset: 0x2609B, size: 0x8, addend: 0x0, symName: __ZNKSt3__122__compressed_pair_elemINS_12basic_stringIcNS_11char_traitsIcEENS_9allocatorIcEEE5__repELi0ELb0EE5__getB8ue170006Ev, symObjAddr: 0x3750, symBinAddr: 0x100005160, symSize: 0x10 }
  - { offsetInCU: 0x1509B, offset: 0x260BF, size: 0x8, addend: 0x0, symName: __ZNSt3__114pointer_traitsIPcE10pointer_toB8ue170006ERc, symObjAddr: 0x3760, symBinAddr: 0x100005170, symSize: 0x10 }
  - { offsetInCU: 0x150C8, offset: 0x260EC, size: 0x8, addend: 0x0, symName: __ZNSt3__116allocator_traitsINS_9allocatorIcEEE8max_sizeB8ue170006IS2_vEEmRKS2_, symObjAddr: 0x3770, symBinAddr: 0x100005180, symSize: 0x20 }
  - { offsetInCU: 0x150F6, offset: 0x2611A, size: 0x8, addend: 0x0, symName: __ZNKSt3__112basic_stringIcNS_11char_traitsIcEENS_9allocatorIcEEE7__allocB8ue170006Ev, symObjAddr: 0x3790, symBinAddr: 0x1000051A0, symSize: 0x20 }
  - { offsetInCU: 0x1511A, offset: 0x2613E, size: 0x8, addend: 0x0, symName: __ZNSt3__114numeric_limitsImE3maxB8ue170006Ev, symObjAddr: 0x37B0, symBinAddr: 0x1000051C0, symSize: 0x10 }
  - { offsetInCU: 0x1512E, offset: 0x26152, size: 0x8, addend: 0x0, symName: __ZNKSt3__19allocatorIcE8max_sizeB8ue170006Ev, symObjAddr: 0x37C0, symBinAddr: 0x1000051D0, symSize: 0x20 }
  - { offsetInCU: 0x15152, offset: 0x26176, size: 0x8, addend: 0x0, symName: __ZNKSt3__117__compressed_pairINS_12basic_stringIcNS_11char_traitsIcEENS_9allocatorIcEEE5__repES5_E6secondB8ue170006Ev, symObjAddr: 0x37E0, symBinAddr: 0x1000051F0, symSize: 0x20 }
  - { offsetInCU: 0x15176, offset: 0x2619A, size: 0x8, addend: 0x0, symName: __ZNKSt3__122__compressed_pair_elemINS_9allocatorIcEELi1ELb1EE5__getB8ue170006Ev, symObjAddr: 0x3800, symBinAddr: 0x100005210, symSize: 0x10 }
  - { offsetInCU: 0x1519A, offset: 0x261BE, size: 0x8, addend: 0x0, symName: __ZNSt3__123__libcpp_numeric_limitsImLb1EE3maxB8ue170006Ev, symObjAddr: 0x3810, symBinAddr: 0x100005220, symSize: 0x10 }
  - { offsetInCU: 0x151AE, offset: 0x261D2, size: 0x8, addend: 0x0, symName: __ZNSt3__123__libcpp_numeric_limitsIlLb1EE3maxB8ue170006Ev, symObjAddr: 0x3820, symBinAddr: 0x100005230, symSize: 0x10 }
  - { offsetInCU: 0x151C2, offset: 0x261E6, size: 0x8, addend: 0x0, symName: __ZNKSt3__18ios_base5rdbufB8ue170006Ev, symObjAddr: 0x3830, symBinAddr: 0x100005240, symSize: 0x20 }
  - { offsetInCU: 0x151E6, offset: 0x2620A, size: 0x8, addend: 0x0, symName: __ZNSt3__111char_traitsIcE11to_int_typeB8ue170006Ec, symObjAddr: 0x3850, symBinAddr: 0x100005260, symSize: 0x10 }
  - { offsetInCU: 0x15209, offset: 0x2622D, size: 0x8, addend: 0x0, symName: __Z7isasciii, symObjAddr: 0x3860, symBinAddr: 0x100005270, symSize: 0x20 }
  - { offsetInCU: 0x15236, offset: 0x2625A, size: 0x8, addend: 0x0, symName: __ZNKSt3__18ios_base10exceptionsB8ue170006Ev, symObjAddr: 0x3880, symBinAddr: 0x100005290, symSize: 0x20 }
  - { offsetInCU: 0x1525D, offset: 0x26281, size: 0x8, addend: 0x0, symName: __ZNSt3__18ios_base8setstateB8ue170006Ej, symObjAddr: 0x38A0, symBinAddr: 0x1000052B0, symSize: 0x30 }
  - { offsetInCU: 0x15293, offset: 0x262B7, size: 0x8, addend: 0x0, symName: __ZNKSt3__18ios_base3eofB8ue170006Ev, symObjAddr: 0x38D0, symBinAddr: 0x1000052E0, symSize: 0x20 }
  - { offsetInCU: 0x152BA, offset: 0x262DE, size: 0x8, addend: 0x0, symName: __ZNSt3__16vectorIP6ObjectNS_9allocatorIS2_EEE22__construct_one_at_endB8ue170006IJRKS2_EEEvDpOT_, symObjAddr: 0x38F0, symBinAddr: 0x100005300, symSize: 0x90 }
  - { offsetInCU: 0x15308, offset: 0x2632C, size: 0x8, addend: 0x0, symName: __ZNSt3__16vectorIP6ObjectNS_9allocatorIS2_EEE21__push_back_slow_pathIRKS2_EEvOT_, symObjAddr: 0x3980, symBinAddr: 0x100005390, symSize: 0xD0 }
  - { offsetInCU: 0x15380, offset: 0x263A4, size: 0x8, addend: 0x0, symName: __ZNSt3__16vectorIP6ObjectNS_9allocatorIS2_EEE21_ConstructTransactionC1B8ue170006ERS5_m, symObjAddr: 0x3A50, symBinAddr: 0x100005460, symSize: 0x30 }
  - { offsetInCU: 0x153C6, offset: 0x263EA, size: 0x8, addend: 0x0, symName: __ZNSt3__116allocator_traitsINS_9allocatorIP6ObjectEEE9constructB8ue170006IS3_JRKS3_EvEEvRS4_PT_DpOT0_, symObjAddr: 0x3A80, symBinAddr: 0x100005490, symSize: 0x30 }
  - { offsetInCU: 0x1541D, offset: 0x26441, size: 0x8, addend: 0x0, symName: __ZNSt3__16vectorIP6ObjectNS_9allocatorIS2_EEE21_ConstructTransactionD1B8ue170006Ev, symObjAddr: 0x3AB0, symBinAddr: 0x1000054C0, symSize: 0x20 }
  - { offsetInCU: 0x15445, offset: 0x26469, size: 0x8, addend: 0x0, symName: __ZNSt3__16vectorIP6ObjectNS_9allocatorIS2_EEE21_ConstructTransactionC2B8ue170006ERS5_m, symObjAddr: 0x3AD0, symBinAddr: 0x1000054E0, symSize: 0x40 }
  - { offsetInCU: 0x1548B, offset: 0x264AF, size: 0x8, addend: 0x0, symName: __ZNSt3__19allocatorIP6ObjectE9constructB8ue170006IS2_JRKS2_EEEvPT_DpOT0_, symObjAddr: 0x3B10, symBinAddr: 0x100005520, symSize: 0x20 }
  - { offsetInCU: 0x154DF, offset: 0x26503, size: 0x8, addend: 0x0, symName: __ZNSt3__16vectorIP6ObjectNS_9allocatorIS2_EEE21_ConstructTransactionD2B8ue170006Ev, symObjAddr: 0x3B30, symBinAddr: 0x100005540, symSize: 0x20 }
  - { offsetInCU: 0x15507, offset: 0x2652B, size: 0x8, addend: 0x0, symName: __ZNKSt3__16vectorIP6ObjectNS_9allocatorIS2_EEE11__recommendB8ue170006Em, symObjAddr: 0x3B50, symBinAddr: 0x100005560, symSize: 0xA0 }
  - { offsetInCU: 0x1555D, offset: 0x26581, size: 0x8, addend: 0x0, symName: __ZNSt3__114__split_bufferIP6ObjectRNS_9allocatorIS2_EEEC1EmmS5_, symObjAddr: 0x3BF0, symBinAddr: 0x100005600, symSize: 0x40 }
  - { offsetInCU: 0x155B2, offset: 0x265D6, size: 0x8, addend: 0x0, symName: __ZNSt3__114__split_bufferIP6ObjectRNS_9allocatorIS2_EEED1Ev, symObjAddr: 0x3D50, symBinAddr: 0x100005760, symSize: 0x20 }
  - { offsetInCU: 0x155DD, offset: 0x26601, size: 0x8, addend: 0x0, symName: __ZNKSt3__16vectorIP6ObjectNS_9allocatorIS2_EEE8max_sizeEv, symObjAddr: 0x3D70, symBinAddr: 0x100005780, symSize: 0x60 }
  - { offsetInCU: 0x15604, offset: 0x26628, size: 0x8, addend: 0x0, symName: __ZNKSt3__16vectorIP6ObjectNS_9allocatorIS2_EEE20__throw_length_errorB8ue170006Ev, symObjAddr: 0x3DD0, symBinAddr: 0x1000057E0, symSize: 0x20 }
  - { offsetInCU: 0x15632, offset: 0x26656, size: 0x8, addend: 0x0, symName: __ZNSt3__116allocator_traitsINS_9allocatorIP6ObjectEEE8max_sizeB8ue170006IS4_vEEmRKS4_, symObjAddr: 0x3E50, symBinAddr: 0x100005860, symSize: 0x20 }
  - { offsetInCU: 0x15660, offset: 0x26684, size: 0x8, addend: 0x0, symName: __ZNKSt3__16vectorIP6ObjectNS_9allocatorIS2_EEE7__allocB8ue170006Ev, symObjAddr: 0x3E70, symBinAddr: 0x100005880, symSize: 0x20 }
  - { offsetInCU: 0x1568E, offset: 0x266B2, size: 0x8, addend: 0x0, symName: __ZNKSt3__16__lessIvvEclB8ue170006ImmEEbRKT_RKT0_, symObjAddr: 0x3EE0, symBinAddr: 0x1000058F0, symSize: 0x30 }
  - { offsetInCU: 0x156E0, offset: 0x26704, size: 0x8, addend: 0x0, symName: __ZNKSt3__19allocatorIP6ObjectE8max_sizeB8ue170006Ev, symObjAddr: 0x3F10, symBinAddr: 0x100005920, symSize: 0x20 }
  - { offsetInCU: 0x15704, offset: 0x26728, size: 0x8, addend: 0x0, symName: __ZNKSt3__117__compressed_pairIPP6ObjectNS_9allocatorIS2_EEE6secondB8ue170006Ev, symObjAddr: 0x3F30, symBinAddr: 0x100005940, symSize: 0x20 }
  - { offsetInCU: 0x15728, offset: 0x2674C, size: 0x8, addend: 0x0, symName: __ZNKSt3__122__compressed_pair_elemINS_9allocatorIP6ObjectEELi1ELb1EE5__getB8ue170006Ev, symObjAddr: 0x3F50, symBinAddr: 0x100005960, symSize: 0x10 }
  - { offsetInCU: 0x1574C, offset: 0x26770, size: 0x8, addend: 0x0, symName: __ZNSt12length_errorC1B8ue170006EPKc, symObjAddr: 0x3FD0, symBinAddr: 0x1000059E0, symSize: 0x30 }
  - { offsetInCU: 0x15782, offset: 0x267A6, size: 0x8, addend: 0x0, symName: __ZNSt12length_errorC2B8ue170006EPKc, symObjAddr: 0x4000, symBinAddr: 0x100005A10, symSize: 0x40 }
  - { offsetInCU: 0x157B8, offset: 0x267DC, size: 0x8, addend: 0x0, symName: __ZNSt3__114__split_bufferIP6ObjectRNS_9allocatorIS2_EEEC2EmmS5_, symObjAddr: 0x4090, symBinAddr: 0x100005AA0, symSize: 0xD0 }
  - { offsetInCU: 0x1582C, offset: 0x26850, size: 0x8, addend: 0x0, symName: __ZNSt3__117__compressed_pairIPP6ObjectRNS_9allocatorIS2_EEEC1B8ue170006IDnS6_EEOT_OT0_, symObjAddr: 0x4160, symBinAddr: 0x100005B70, symSize: 0x30 }
  - { offsetInCU: 0x15882, offset: 0x268A6, size: 0x8, addend: 0x0, symName: __ZNSt3__114__split_bufferIP6ObjectRNS_9allocatorIS2_EEE7__allocB8ue170006Ev, symObjAddr: 0x41D0, symBinAddr: 0x100005BE0, symSize: 0x20 }
  - { offsetInCU: 0x158A6, offset: 0x268CA, size: 0x8, addend: 0x0, symName: __ZNSt3__114__split_bufferIP6ObjectRNS_9allocatorIS2_EEE9__end_capB8ue170006Ev, symObjAddr: 0x41F0, symBinAddr: 0x100005C00, symSize: 0x20 }
  - { offsetInCU: 0x158CA, offset: 0x268EE, size: 0x8, addend: 0x0, symName: __ZNSt3__117__compressed_pairIPP6ObjectRNS_9allocatorIS2_EEEC2B8ue170006IDnS6_EEOT_OT0_, symObjAddr: 0x4210, symBinAddr: 0x100005C20, symSize: 0x40 }
  - { offsetInCU: 0x15920, offset: 0x26944, size: 0x8, addend: 0x0, symName: __ZNSt3__122__compressed_pair_elemIRNS_9allocatorIP6ObjectEELi1ELb0EEC2B8ue170006IS5_vEEOT_, symObjAddr: 0x4250, symBinAddr: 0x100005C60, symSize: 0x20 }
  - { offsetInCU: 0x15960, offset: 0x26984, size: 0x8, addend: 0x0, symName: __ZNSt3__19allocatorIP6ObjectE8allocateB8ue170006Em, symObjAddr: 0x4270, symBinAddr: 0x100005C80, symSize: 0x50 }
  - { offsetInCU: 0x15992, offset: 0x269B6, size: 0x8, addend: 0x0, symName: __ZNSt3__117__compressed_pairIPP6ObjectRNS_9allocatorIS2_EEE6secondB8ue170006Ev, symObjAddr: 0x43B0, symBinAddr: 0x100005DC0, symSize: 0x20 }
  - { offsetInCU: 0x159B6, offset: 0x269DA, size: 0x8, addend: 0x0, symName: __ZNSt3__122__compressed_pair_elemIRNS_9allocatorIP6ObjectEELi1ELb0EE5__getB8ue170006Ev, symObjAddr: 0x43D0, symBinAddr: 0x100005DE0, symSize: 0x20 }
  - { offsetInCU: 0x159DA, offset: 0x269FE, size: 0x8, addend: 0x0, symName: __ZNSt3__117__compressed_pairIPP6ObjectRNS_9allocatorIS2_EEE5firstB8ue170006Ev, symObjAddr: 0x43F0, symBinAddr: 0x100005E00, symSize: 0x20 }
  - { offsetInCU: 0x159FE, offset: 0x26A22, size: 0x8, addend: 0x0, symName: __ZNSt3__116reverse_iteratorIPP6ObjectEC1B8ue170006ES3_, symObjAddr: 0x4480, symBinAddr: 0x100005E90, symSize: 0x30 }
  - { offsetInCU: 0x15A34, offset: 0x26A58, size: 0x8, addend: 0x0, symName: __ZNKSt3__116reverse_iteratorIPP6ObjectE4baseB8ue170006Ev, symObjAddr: 0x44B0, symBinAddr: 0x100005EC0, symSize: 0x20 }
  - { offsetInCU: 0x15A58, offset: 0x26A7C, size: 0x8, addend: 0x0, symName: __ZNKSt3__16vectorIP6ObjectNS_9allocatorIS2_EEE14__annotate_newB8ue170006Em, symObjAddr: 0x4510, symBinAddr: 0x100005F20, symSize: 0xB0 }
  - { offsetInCU: 0x15AAF, offset: 0x26AD3, size: 0x8, addend: 0x0, symName: __ZNKSt3__111__move_loopINS_17_ClassicAlgPolicyEEclB8ue170006INS_16reverse_iteratorIPP6ObjectEES8_S8_EENS_4pairIT_T1_EESA_T0_SB_, symObjAddr: 0x4A00, symBinAddr: 0x100006410, symSize: 0xA0 }
  - { offsetInCU: 0x15B1E, offset: 0x26B42, size: 0x8, addend: 0x0, symName: __ZNSt3__18_IterOpsINS_17_ClassicAlgPolicyEE11__iter_moveB8ue170006IRNS_16reverse_iteratorIPP6ObjectEEEENS_9enable_ifIXsr12is_referenceIDTdeclsr3stdE7declvalIRT_EEEEE5valueEDTclsr3stdE4movedeclsr3stdE7declvalISC_EEEEE4typeEOSB_, symObjAddr: 0x4C20, symBinAddr: 0x100006630, symSize: 0x20 }
  - { offsetInCU: 0x15B4A, offset: 0x26B6E, size: 0x8, addend: 0x0, symName: __ZNKSt3__116reverse_iteratorIPP6ObjectEdeB8ue170006Ev, symObjAddr: 0x4C40, symBinAddr: 0x100006650, symSize: 0x30 }
  - { offsetInCU: 0x15B7C, offset: 0x26BA0, size: 0x8, addend: 0x0, symName: __ZNSt3__116reverse_iteratorIPP6ObjectEppB8ue170006Ev, symObjAddr: 0x4C70, symBinAddr: 0x100006680, symSize: 0x20 }
  - { offsetInCU: 0x15BA0, offset: 0x26BC4, size: 0x8, addend: 0x0, symName: __ZNSt3__18_IterOpsINS_17_ClassicAlgPolicyEE25__validate_iter_referenceB8ue170006IRNS_16reverse_iteratorIPP6ObjectEEEEvv, symObjAddr: 0x4C90, symBinAddr: 0x1000066A0, symSize: 0x10 }
  - { offsetInCU: 0x15BBE, offset: 0x26BE2, size: 0x8, addend: 0x0, symName: __ZNSt3__118__unwrap_iter_implINS_16reverse_iteratorIPP6ObjectEELb0EE8__unwrapB8ue170006ES5_, symObjAddr: 0x4CA0, symBinAddr: 0x1000066B0, symSize: 0x20 }
  - { offsetInCU: 0x15BE7, offset: 0x26C0B, size: 0x8, addend: 0x0, symName: __ZNSt3__14pairINS_16reverse_iteratorIPP6ObjectEES5_EC1B8ue170006IS5_S5_LPv0EEEOT_OT0_, symObjAddr: 0x4CC0, symBinAddr: 0x1000066D0, symSize: 0x30 }
  - { offsetInCU: 0x15C44, offset: 0x26C68, size: 0x8, addend: 0x0, symName: __ZNSt3__14pairINS_16reverse_iteratorIPP6ObjectEES5_EC2B8ue170006IS5_S5_LPv0EEEOT_OT0_, symObjAddr: 0x4CF0, symBinAddr: 0x100006700, symSize: 0x40 }
  - { offsetInCU: 0x15CA1, offset: 0x26CC5, size: 0x8, addend: 0x0, symName: __ZNSt3__118__unwrap_iter_implINS_16reverse_iteratorIPP6ObjectEELb0EE8__rewrapB8ue170006ES5_S5_, symObjAddr: 0x4D30, symBinAddr: 0x100006740, symSize: 0x30 }
  - { offsetInCU: 0x15CCF, offset: 0x26CF3, size: 0x8, addend: 0x0, symName: __ZNSt3__116reverse_iteratorIPP6ObjectEC2B8ue170006ES3_, symObjAddr: 0x4D60, symBinAddr: 0x100006770, symSize: 0x30 }
  - { offsetInCU: 0x15D05, offset: 0x26D29, size: 0x8, addend: 0x0, symName: __ZNSt3__114__split_bufferIP6ObjectRNS_9allocatorIS2_EEED2Ev, symObjAddr: 0x4D90, symBinAddr: 0x1000067A0, symSize: 0x70 }
  - { offsetInCU: 0x15D30, offset: 0x26D54, size: 0x8, addend: 0x0, symName: __ZNSt3__114__split_bufferIP6ObjectRNS_9allocatorIS2_EEE5clearB8ue170006Ev, symObjAddr: 0x4E00, symBinAddr: 0x100006810, symSize: 0x20 }
  - { offsetInCU: 0x15D54, offset: 0x26D78, size: 0x8, addend: 0x0, symName: __ZNKSt3__114__split_bufferIP6ObjectRNS_9allocatorIS2_EEE8capacityB8ue170006Ev, symObjAddr: 0x4E20, symBinAddr: 0x100006830, symSize: 0x30 }
  - { offsetInCU: 0x15D78, offset: 0x26D9C, size: 0x8, addend: 0x0, symName: __ZNSt3__114__split_bufferIP6ObjectRNS_9allocatorIS2_EEE17__destruct_at_endB8ue170006EPS2_, symObjAddr: 0x4E50, symBinAddr: 0x100006860, symSize: 0x30 }
  - { offsetInCU: 0x15DAA, offset: 0x26DCE, size: 0x8, addend: 0x0, symName: __ZNSt3__114__split_bufferIP6ObjectRNS_9allocatorIS2_EEE17__destruct_at_endB8ue170006EPS2_NS_17integral_constantIbLb0EEE, symObjAddr: 0x4E80, symBinAddr: 0x100006890, symSize: 0x80 }
  - { offsetInCU: 0x15DEA, offset: 0x26E0E, size: 0x8, addend: 0x0, symName: __ZNKSt3__114__split_bufferIP6ObjectRNS_9allocatorIS2_EEE9__end_capB8ue170006Ev, symObjAddr: 0x4F00, symBinAddr: 0x100006910, symSize: 0x20 }
  - { offsetInCU: 0x15E0E, offset: 0x26E32, size: 0x8, addend: 0x0, symName: __ZNKSt3__117__compressed_pairIPP6ObjectRNS_9allocatorIS2_EEE5firstB8ue170006Ev, symObjAddr: 0x4F20, symBinAddr: 0x100006930, symSize: 0x20 }
  - { offsetInCU: 0x15E32, offset: 0x26E56, size: 0x8, addend: 0x0, symName: __ZNSt3__111char_traitsIcE6lengthB8ue170006EPKc, symObjAddr: 0x4F40, symBinAddr: 0x100006950, symSize: 0x30 }
  - { offsetInCU: 0x15E55, offset: 0x26E79, size: 0x8, addend: 0x0, symName: __ZNKSt3__112basic_stringIcNS_11char_traitsIcEENS_9allocatorIcEEE4sizeB8ue170006Ev, symObjAddr: 0x4F70, symBinAddr: 0x100006980, symSize: 0x50 }
  - { offsetInCU: 0x15E79, offset: 0x26E9D, size: 0x8, addend: 0x0, symName: __ZNKSt3__112basic_stringIcNS_11char_traitsIcEENS_9allocatorIcEEE15__get_long_sizeB8ue170006Ev, symObjAddr: 0x4FE0, symBinAddr: 0x1000069F0, symSize: 0x20 }
  - { offsetInCU: 0x15E9D, offset: 0x26EC1, size: 0x8, addend: 0x0, symName: __ZNKSt3__112basic_stringIcNS_11char_traitsIcEENS_9allocatorIcEEE16__get_short_sizeB8ue170006Ev, symObjAddr: 0x5000, symBinAddr: 0x100006A10, symSize: 0x30 }
  - { offsetInCU: 0x15EDF, offset: 0x26F03, size: 0x8, addend: 0x0, symName: __ZNKSt3__113basic_ostreamIcNS_11char_traitsIcEEE6sentrycvbB8ue170006Ev, symObjAddr: 0x5220, symBinAddr: 0x100006C30, symSize: 0x20 }
  - { offsetInCU: 0x15F03, offset: 0x26F27, size: 0x8, addend: 0x0, symName: __ZNSt3__119ostreambuf_iteratorIcNS_11char_traitsIcEEEC1B8ue170006ERNS_13basic_ostreamIcS2_EE, symObjAddr: 0x5460, symBinAddr: 0x100006E70, symSize: 0x30 }
  - { offsetInCU: 0x15F39, offset: 0x26F5D, size: 0x8, addend: 0x0, symName: __ZNKSt3__18ios_base5flagsB8ue170006Ev, symObjAddr: 0x5490, symBinAddr: 0x100006EA0, symSize: 0x20 }
  - { offsetInCU: 0x15F60, offset: 0x26F84, size: 0x8, addend: 0x0, symName: __ZNKSt3__19basic_iosIcNS_11char_traitsIcEEE4fillB8ue170006Ev, symObjAddr: 0x54B0, symBinAddr: 0x100006EC0, symSize: 0x70 }
  - { offsetInCU: 0x15F87, offset: 0x26FAB, size: 0x8, addend: 0x0, symName: __ZNKSt3__119ostreambuf_iteratorIcNS_11char_traitsIcEEE6failedB8ue170006Ev, symObjAddr: 0x5520, symBinAddr: 0x100006F30, symSize: 0x20 }
  - { offsetInCU: 0x15FAB, offset: 0x26FCF, size: 0x8, addend: 0x0, symName: __ZNSt3__115basic_streambufIcNS_11char_traitsIcEEE5sputnB8ue170006EPKcl, symObjAddr: 0x5540, symBinAddr: 0x100006F50, symSize: 0x30 }
  - { offsetInCU: 0x15FEB, offset: 0x2700F, size: 0x8, addend: 0x0, symName: __ZNSt3__112basic_stringIcNS_11char_traitsIcEENS_9allocatorIcEEEC1B8ue170006Emc, symObjAddr: 0x5570, symBinAddr: 0x100006F80, symSize: 0x30 }
  - { offsetInCU: 0x16031, offset: 0x27055, size: 0x8, addend: 0x0, symName: __ZNSt3__112basic_stringIcNS_11char_traitsIcEENS_9allocatorIcEEE4dataB8ue170006Ev, symObjAddr: 0x55A0, symBinAddr: 0x100006FB0, symSize: 0x30 }
  - { offsetInCU: 0x16055, offset: 0x27079, size: 0x8, addend: 0x0, symName: __ZNSt3__112basic_stringIcNS_11char_traitsIcEENS_9allocatorIcEEEC2B8ue170006Emc, symObjAddr: 0x55D0, symBinAddr: 0x100006FE0, symSize: 0x50 }
  - { offsetInCU: 0x1609B, offset: 0x270BF, size: 0x8, addend: 0x0, symName: __ZNSt3__112basic_stringIcNS_11char_traitsIcEENS_9allocatorIcEEE13__get_pointerB8ue170006Ev, symObjAddr: 0x5630, symBinAddr: 0x100007040, symSize: 0x50 }
  - { offsetInCU: 0x160BF, offset: 0x270E3, size: 0x8, addend: 0x0, symName: __ZNSt3__119ostreambuf_iteratorIcNS_11char_traitsIcEEEC2B8ue170006ERNS_13basic_ostreamIcS2_EE, symObjAddr: 0x5680, symBinAddr: 0x100007090, symSize: 0x50 }
  - { offsetInCU: 0x160F5, offset: 0x27119, size: 0x8, addend: 0x0, symName: __ZNKSt3__19basic_iosIcNS_11char_traitsIcEEE5widenB8ue170006Ec, symObjAddr: 0x56D0, symBinAddr: 0x1000070E0, symSize: 0x80 }
  - { offsetInCU: 0x1612B, offset: 0x2714F, size: 0x8, addend: 0x0, symName: __ZNKSt3__15ctypeIcE5widenB8ue170006Ec, symObjAddr: 0x5750, symBinAddr: 0x100007160, symSize: 0x30 }
  - { offsetInCU: 0x1615E, offset: 0x27182, size: 0x8, addend: 0x0, symName: __ZNKSt3__112basic_stringIcNS_11char_traitsIcEENS_9allocatorIcEEE4dataB8ue170006Ev, symObjAddr: 0x5780, symBinAddr: 0x100007190, symSize: 0x30 }
  - { offsetInCU: 0x16182, offset: 0x271A6, size: 0x8, addend: 0x0, symName: __ZNKSt3__112basic_stringIcNS_11char_traitsIcEENS_9allocatorIcEEE13__get_pointerB8ue170006Ev, symObjAddr: 0x57C0, symBinAddr: 0x1000071D0, symSize: 0x50 }
  - { offsetInCU: 0x161A6, offset: 0x271CA, size: 0x8, addend: 0x0, symName: __ZNKSt3__112basic_stringIcNS_11char_traitsIcEENS_9allocatorIcEEE18__get_long_pointerB8ue170006Ev, symObjAddr: 0x5810, symBinAddr: 0x100007220, symSize: 0x20 }
  - { offsetInCU: 0x161CA, offset: 0x271EE, size: 0x8, addend: 0x0, symName: __ZNKSt3__112basic_stringIcNS_11char_traitsIcEENS_9allocatorIcEEE19__get_short_pointerB8ue170006Ev, symObjAddr: 0x5830, symBinAddr: 0x100007240, symSize: 0x30 }
  - { offsetInCU: 0x161EE, offset: 0x27212, size: 0x8, addend: 0x0, symName: __ZNSt3__114pointer_traitsIPKcE10pointer_toB8ue170006ERS1_, symObjAddr: 0x5860, symBinAddr: 0x100007270, symSize: 0xE }
  - { offsetInCU: 0x5F, offset: 0x27388, size: 0x8, addend: 0x0, symName: __ZL4MISS, symObjAddr: 0xEC38, symBinAddr: 0x10000D078, symSize: 0x0 }
  - { offsetInCU: 0x1B00, offset: 0x28E29, size: 0x8, addend: 0x0, symName: __ZNSt3__1neB8ue170006IPP6ObjectEEbRKNS_11__wrap_iterIT_EES8_, symObjAddr: 0xBD0, symBinAddr: 0x100007C40, symSize: 0x30 }
  - { offsetInCU: 0x1B43, offset: 0x28E6C, size: 0x8, addend: 0x0, symName: __ZNSt3__1eqB8ue170006IPP6ObjectEEbRKNS_11__wrap_iterIT_EES8_, symObjAddr: 0xDE0, symBinAddr: 0x100007D40, symSize: 0x40 }
  - { offsetInCU: 0x3BFD, offset: 0x2AF26, size: 0x8, addend: 0x0, symName: __ZN9RayTracer19calculateReflectionE3Ray4Vec3IdEP6ObjectP11EnvironmentRKi, symObjAddr: 0x30, symBinAddr: 0x1000072B0, symSize: 0x300 }
  - { offsetInCU: 0x3CE3, offset: 0x2B00C, size: 0x8, addend: 0x0, symName: __ZNK4Vec3IdEngEv, symObjAddr: 0x4A0, symBinAddr: 0x1000075B0, symSize: 0x80 }
  - { offsetInCU: 0x3D0C, offset: 0x2B035, size: 0x8, addend: 0x0, symName: __ZN5LightC1ERKS_, symObjAddr: 0x550, symBinAddr: 0x100007630, symSize: 0x30 }
  - { offsetInCU: 0x3D3E, offset: 0x2B067, size: 0x8, addend: 0x0, symName: __ZN3RayC1ERKS_, symObjAddr: 0x5C0, symBinAddr: 0x100007660, symSize: 0x30 }
  - { offsetInCU: 0x3D70, offset: 0x2B099, size: 0x8, addend: 0x0, symName: __ZN9RayTracer5traceE3RayP11EnvironmentP6ObjectRKi, symObjAddr: 0x620, symBinAddr: 0x100007690, symSize: 0x510 }
  - { offsetInCU: 0x3F31, offset: 0x2B25A, size: 0x8, addend: 0x0, symName: __ZN4Vec3IiEC1Ei, symObjAddr: 0xB30, symBinAddr: 0x100007BA0, symSize: 0x30 }
  - { offsetInCU: 0x3F71, offset: 0x2B29A, size: 0x8, addend: 0x0, symName: __ZNSt3__114numeric_limitsIdE8infinityB8ue170006Ev, symObjAddr: 0xB60, symBinAddr: 0x100007BD0, symSize: 0x10 }
  - { offsetInCU: 0x3F85, offset: 0x2B2AE, size: 0x8, addend: 0x0, symName: __ZNSt3__16vectorIP6ObjectNS_9allocatorIS2_EEE5beginB8ue170006Ev, symObjAddr: 0xB70, symBinAddr: 0x100007BE0, symSize: 0x30 }
  - { offsetInCU: 0x3FAC, offset: 0x2B2D5, size: 0x8, addend: 0x0, symName: __ZNSt3__16vectorIP6ObjectNS_9allocatorIS2_EEE3endB8ue170006Ev, symObjAddr: 0xBA0, symBinAddr: 0x100007C10, symSize: 0x30 }
  - { offsetInCU: 0x3FD3, offset: 0x2B2FC, size: 0x8, addend: 0x0, symName: __ZNKSt3__111__wrap_iterIPP6ObjectEdeB8ue170006Ev, symObjAddr: 0xC00, symBinAddr: 0x100007C70, symSize: 0x20 }
  - { offsetInCU: 0x3FF7, offset: 0x2B320, size: 0x8, addend: 0x0, symName: __ZNSt3__111__wrap_iterIPP6ObjectEppB8ue170006Ev, symObjAddr: 0xC20, symBinAddr: 0x100007C90, symSize: 0x20 }
  - { offsetInCU: 0x401B, offset: 0x2B344, size: 0x8, addend: 0x0, symName: __ZN5LightC2ERKS_, symObjAddr: 0xD50, symBinAddr: 0x100007CB0, symSize: 0x40 }
  - { offsetInCU: 0x404D, offset: 0x2B376, size: 0x8, addend: 0x0, symName: __ZN3RayC2ERKS_, symObjAddr: 0xD90, symBinAddr: 0x100007CF0, symSize: 0x40 }
  - { offsetInCU: 0x407F, offset: 0x2B3A8, size: 0x8, addend: 0x0, symName: __ZNSt3__123__libcpp_numeric_limitsIdLb1EE8infinityB8ue170006Ev, symObjAddr: 0xDD0, symBinAddr: 0x100007D30, symSize: 0x10 }
  - { offsetInCU: 0x4093, offset: 0x2B3BC, size: 0x8, addend: 0x0, symName: __ZNKSt3__111__wrap_iterIPP6ObjectE4baseB8ue170006Ev, symObjAddr: 0xE20, symBinAddr: 0x100007D80, symSize: 0x20 }
  - { offsetInCU: 0x40B7, offset: 0x2B3E0, size: 0x8, addend: 0x0, symName: __ZN4Vec3IiEC2Ei, symObjAddr: 0xF50, symBinAddr: 0x100007DA0, symSize: 0x30 }
  - { offsetInCU: 0x40ED, offset: 0x2B416, size: 0x8, addend: 0x0, symName: __ZNSt3__16vectorIP6ObjectNS_9allocatorIS2_EEE11__make_iterB8ue170006EPS2_, symObjAddr: 0xF80, symBinAddr: 0x100007DD0, symSize: 0x30 }
  - { offsetInCU: 0x4120, offset: 0x2B449, size: 0x8, addend: 0x0, symName: __ZNSt3__111__wrap_iterIPP6ObjectEC1B8ue170006ES3_, symObjAddr: 0xFB0, symBinAddr: 0x100007E00, symSize: 0x30 }
  - { offsetInCU: 0x4156, offset: 0x2B47F, size: 0x8, addend: 0x0, symName: __ZNSt3__111__wrap_iterIPP6ObjectEC2B8ue170006ES3_, symObjAddr: 0xFE0, symBinAddr: 0x100007E30, symSize: 0x19 }
  - { offsetInCU: 0x5F, offset: 0x2B541, size: 0x8, addend: 0x0, symName: __ZL4MISS, symObjAddr: 0x2E5F8, symBinAddr: 0x10000D090, symSize: 0x0 }
  - { offsetInCU: 0x38FE, offset: 0x2EDE0, size: 0x8, addend: 0x0, symName: __ZNSt3__118generate_canonicalB8ue170006IdLm53ENS_26linear_congruential_engineIjLj48271ELj0ELj2147483647EEEEET_RT1_, symObjAddr: 0xC90, symBinAddr: 0x100008830, symSize: 0x100 }
  - { offsetInCU: 0x3A2C, offset: 0x2EF0E, size: 0x8, addend: 0x0, symName: __ZNSt3__112__to_addressB8ue170006I4Vec3IiEEEPT_S4_, symObjAddr: 0x12C0, symBinAddr: 0x100008E50, symSize: 0x10 }
  - { offsetInCU: 0x3A61, offset: 0x2EF43, size: 0x8, addend: 0x0, symName: __ZNSt3__119__allocate_at_leastB8ue170006INS_9allocatorI4Vec3IiEEEEENS_19__allocation_resultINS_16allocator_traitsIT_E7pointerEEERS7_m, symObjAddr: 0x1EB0, symBinAddr: 0x1000096F0, symSize: 0x40 }
  - { offsetInCU: 0x3AA4, offset: 0x2EF86, size: 0x8, addend: 0x0, symName: __ZNSt3__142__uninitialized_allocator_move_if_noexceptB8ue170006INS_9allocatorI4Vec3IiEEENS_16reverse_iteratorIPS3_EES7_S7_EET2_RT_T0_T1_S8_, symObjAddr: 0x2130, symBinAddr: 0x100009880, symSize: 0x180 }
  - { offsetInCU: 0x3B45, offset: 0x2F027, size: 0x8, addend: 0x0, symName: __ZNSt3__14swapB8ue170006IP4Vec3IiEEENS_9enable_ifIXaasr21is_move_constructibleIT_EE5valuesr18is_move_assignableIS5_EE5valueEvE4typeERS5_S8_, symObjAddr: 0x2300, symBinAddr: 0x100009A50, symSize: 0x40 }
  - { offsetInCU: 0x3B96, offset: 0x2F078, size: 0x8, addend: 0x0, symName: __ZNSt3__122__make_exception_guardB8ue170006INS_29_AllocatorDestroyRangeReverseINS_9allocatorI4Vec3IiEEENS_16reverse_iteratorIPS4_EEEEEENS_28__exception_guard_exceptionsIT_EESB_, symObjAddr: 0x23E0, symBinAddr: 0x100009B30, symSize: 0x60 }
  - { offsetInCU: 0x3BCB, offset: 0x2F0AD, size: 0x8, addend: 0x0, symName: __ZNSt3__1neB8ue170006IP4Vec3IiES3_EEbRKNS_16reverse_iteratorIT_EERKNS4_IT0_EE, symObjAddr: 0x2480, symBinAddr: 0x100009BD0, symSize: 0x40 }
  - { offsetInCU: 0x3C17, offset: 0x2F0F9, size: 0x8, addend: 0x0, symName: __ZNSt3__112__to_addressB8ue170006INS_16reverse_iteratorIP4Vec3IiEEEvEEu7__decayIDTclsr19__to_address_helperIT_EE6__callclsr3stdE7declvalIRKS6_EEEEES8_, symObjAddr: 0x24C0, symBinAddr: 0x100009C10, symSize: 0x20 }
  - { offsetInCU: 0x3C77, offset: 0x2F159, size: 0x8, addend: 0x0, symName: __ZNSt3__119__allocator_destroyB8ue170006INS_9allocatorI4Vec3IiEEENS_16reverse_iteratorINS5_IPS3_EEEES8_EEvRT_T0_T1_, symObjAddr: 0x27B0, symBinAddr: 0x100009F00, symSize: 0x70 }
  - { offsetInCU: 0x3CDB, offset: 0x2F1BD, size: 0x8, addend: 0x0, symName: __ZNSt3__1neB8ue170006INS_16reverse_iteratorIP4Vec3IiEEES5_EEbRKNS1_IT_EERKNS1_IT0_EE, symObjAddr: 0x2850, symBinAddr: 0x100009FA0, symSize: 0x50 }
  - { offsetInCU: 0x3D27, offset: 0x2F209, size: 0x8, addend: 0x0, symName: __ZNSt3__112__to_addressB8ue170006INS_16reverse_iteratorINS1_IP4Vec3IiEEEEEvEEu7__decayIDTclsr19__to_address_helperIT_EE6__callclsr3stdE7declvalIRKS7_EEEEES9_, symObjAddr: 0x28A0, symBinAddr: 0x100009FF0, symSize: 0x20 }
  - { offsetInCU: 0x3D87, offset: 0x2F269, size: 0x8, addend: 0x0, symName: __ZNSt3__1neB8ue170006IP4Vec3IiEEEbRKNS_11__wrap_iterIT_EES8_, symObjAddr: 0x2C80, symBinAddr: 0x10000A3D0, symSize: 0x30 }
  - { offsetInCU: 0x3DCA, offset: 0x2F2AC, size: 0x8, addend: 0x0, symName: __ZNSt3__1eqB8ue170006IP4Vec3IiEEEbRKNS_11__wrap_iterIT_EES8_, symObjAddr: 0x2E50, symBinAddr: 0x10000A5A0, symSize: 0x40 }
  - { offsetInCU: 0x3E0D, offset: 0x2F2EF, size: 0x8, addend: 0x0, symName: __ZNSt3__122__make_exception_guardB8ue170006INS_6vectorI4Vec3IiENS_9allocatorIS3_EEE16__destroy_vectorEEENS_28__exception_guard_exceptionsIT_EES9_, symObjAddr: 0x30F0, symBinAddr: 0x10000A7E0, symSize: 0x40 }
  - { offsetInCU: 0x3E42, offset: 0x2F324, size: 0x8, addend: 0x0, symName: __ZNSt3__130__uninitialized_allocator_copyB8ue170006INS_9allocatorI4Vec3IiEEEPS3_S5_S5_EET2_RT_T0_T1_S6_, symObjAddr: 0x32F0, symBinAddr: 0x10000A9E0, symSize: 0x80 }
  - { offsetInCU: 0x3EE1, offset: 0x2F3C3, size: 0x8, addend: 0x0, symName: __ZNSt3__114__unwrap_rangeB8ue170006IP4Vec3IiES3_EENS_4pairIT0_S5_EET_S7_, symObjAddr: 0x3370, symBinAddr: 0x10000AA60, symSize: 0x50 }
  - { offsetInCU: 0x3F2D, offset: 0x2F40F, size: 0x8, addend: 0x0, symName: __ZNSt3__135__uninitialized_allocator_copy_implB8ue170006INS_9allocatorI4Vec3IiEEEPS3_S5_S5_EET2_RT_T0_T1_S6_, symObjAddr: 0x33C0, symBinAddr: 0x10000AAB0, symSize: 0x100 }
  - { offsetInCU: 0x3FCD, offset: 0x2F4AF, size: 0x8, addend: 0x0, symName: __ZNSt3__113__unwrap_iterB8ue170006IP4Vec3IiENS_18__unwrap_iter_implIS3_Lb1EEELi0EEEDTclsrT0_8__unwrapclsr3stdE7declvalIT_EEEES7_, symObjAddr: 0x34C0, symBinAddr: 0x10000ABB0, symSize: 0x20 }
  - { offsetInCU: 0x4012, offset: 0x2F4F4, size: 0x8, addend: 0x0, symName: __ZNSt3__113__rewrap_iterB8ue170006IP4Vec3IiES3_NS_18__unwrap_iter_implIS3_Lb1EEEEET_S6_T0_, symObjAddr: 0x34E0, symBinAddr: 0x10000ABD0, symSize: 0x40 }
  - { offsetInCU: 0x4067, offset: 0x2F549, size: 0x8, addend: 0x0, symName: __ZNSt3__19make_pairB8ue170006IP4Vec3IiES3_EENS_4pairINS_18__unwrap_ref_decayIT_E4typeENS5_IT0_E4typeEEEOS6_OS9_, symObjAddr: 0x3520, symBinAddr: 0x10000AC10, symSize: 0x30 }
  - { offsetInCU: 0x418B, offset: 0x2F66D, size: 0x8, addend: 0x0, symName: __ZNSt3__122__make_exception_guardB8ue170006INS_29_AllocatorDestroyRangeReverseINS_9allocatorI4Vec3IiEEEPS4_EEEENS_28__exception_guard_exceptionsIT_EES9_, symObjAddr: 0x35B0, symBinAddr: 0x10000ACA0, symSize: 0x60 }
  - { offsetInCU: 0x41C0, offset: 0x2F6A2, size: 0x8, addend: 0x0, symName: __ZNSt3__119__allocator_destroyB8ue170006INS_9allocatorI4Vec3IiEEENS_16reverse_iteratorIPS3_EES7_EEvRT_T0_T1_, symObjAddr: 0x3840, symBinAddr: 0x10000AF30, symSize: 0x70 }
  - { offsetInCU: 0x4589, offset: 0x2FA6B, size: 0x8, addend: 0x0, symName: __ZNSt3__16vectorI4Vec3IiENS_9allocatorIS2_EEE26__swap_out_circular_bufferERNS_14__split_bufferIS2_RS4_EE, symObjAddr: 0x1940, symBinAddr: 0x1000093B0, symSize: 0x120 }
  - { offsetInCU: 0x665A, offset: 0x31B3C, size: 0x8, addend: 0x0, symName: __ZN12JitterTracer6jitterEid, symObjAddr: 0x30, symBinAddr: 0x100007E80, symSize: 0x60 }
  - { offsetInCU: 0x66DA, offset: 0x31BBC, size: 0x8, addend: 0x0, symName: __ZNSt3__125uniform_real_distributionIdEC1B8ue170006Edd, symObjAddr: 0x90, symBinAddr: 0x100007EE0, symSize: 0x30 }
  - { offsetInCU: 0x671E, offset: 0x31C00, size: 0x8, addend: 0x0, symName: __ZNSt3__126linear_congruential_engineIjLj48271ELj0ELj2147483647EEC1B8ue170006Ev, symObjAddr: 0xC0, symBinAddr: 0x100007F10, symSize: 0x20 }
  - { offsetInCU: 0x674C, offset: 0x31C2E, size: 0x8, addend: 0x0, symName: __ZNSt3__125uniform_real_distributionIdEclB8ue170006INS_26linear_congruential_engineIjLj48271ELj0ELj2147483647EEEEEdRT_, symObjAddr: 0xE0, symBinAddr: 0x100007F30, symSize: 0x30 }
  - { offsetInCU: 0x6787, offset: 0x31C69, size: 0x8, addend: 0x0, symName: __ZN12JitterTracer6jitterE3Ray, symObjAddr: 0x110, symBinAddr: 0x100007F60, symSize: 0x130 }
  - { offsetInCU: 0x67DE, offset: 0x31CC0, size: 0x8, addend: 0x0, symName: __ZN3RayC1EOS_, symObjAddr: 0x2A0, symBinAddr: 0x100008090, symSize: 0x30 }
  - { offsetInCU: 0x6810, offset: 0x31CF2, size: 0x8, addend: 0x0, symName: __ZN12JitterTracer9subdivideEiidP11Environment, symObjAddr: 0x2D0, symBinAddr: 0x1000080C0, symSize: 0x260 }
  - { offsetInCU: 0x68FA, offset: 0x31DDC, size: 0x8, addend: 0x0, symName: __ZNSt3__16vectorI4Vec3IiENS_9allocatorIS2_EEEC1B8ue170006Ev, symObjAddr: 0x530, symBinAddr: 0x100008320, symSize: 0x20 }
  - { offsetInCU: 0x6922, offset: 0x31E04, size: 0x8, addend: 0x0, symName: __ZNSt3__16vectorI4Vec3IiENS_9allocatorIS2_EEE9push_backB8ue170006ERKS2_, symObjAddr: 0x580, symBinAddr: 0x100008340, symSize: 0x60 }
  - { offsetInCU: 0x6958, offset: 0x31E3A, size: 0x8, addend: 0x0, symName: __Z7averageIiE4Vec3IT_ENSt3__16vectorIS2_NS3_9allocatorIS2_EEEE, symObjAddr: 0x5E0, symBinAddr: 0x1000083A0, symSize: 0x100 }
  - { offsetInCU: 0x69F1, offset: 0x31ED3, size: 0x8, addend: 0x0, symName: __ZNSt3__16vectorI4Vec3IiENS_9allocatorIS2_EEEC1ERKS5_, symObjAddr: 0x6E0, symBinAddr: 0x1000084A0, symSize: 0x30 }
  - { offsetInCU: 0x6A2A, offset: 0x31F0C, size: 0x8, addend: 0x0, symName: __ZNSt3__16vectorI4Vec3IiENS_9allocatorIS2_EEED1B8ue170006Ev, symObjAddr: 0x710, symBinAddr: 0x1000084D0, symSize: 0x20 }
  - { offsetInCU: 0x6A53, offset: 0x31F35, size: 0x8, addend: 0x0, symName: __ZN12JitterTracer5traceE3RayP11EnvironmentP6ObjectRKi, symObjAddr: 0x730, symBinAddr: 0x1000084F0, symSize: 0x80 }
  - { offsetInCU: 0x6AB2, offset: 0x31F94, size: 0x8, addend: 0x0, symName: __ZN3RayC2EOS_, symObjAddr: 0x850, symBinAddr: 0x100008570, symSize: 0x40 }
  - { offsetInCU: 0x6AEA, offset: 0x31FCC, size: 0x8, addend: 0x0, symName: __ZN9DirectionC1EOS_, symObjAddr: 0x8C0, symBinAddr: 0x1000085B0, symSize: 0x30 }
  - { offsetInCU: 0x6B1C, offset: 0x31FFE, size: 0x8, addend: 0x0, symName: __ZN9DirectionC2EOS_, symObjAddr: 0x930, symBinAddr: 0x1000085E0, symSize: 0x30 }
  - { offsetInCU: 0x6B4D, offset: 0x3202F, size: 0x8, addend: 0x0, symName: __ZNSt3__125uniform_real_distributionIdEC2B8ue170006Edd, symObjAddr: 0xA70, symBinAddr: 0x100008610, symSize: 0x30 }
  - { offsetInCU: 0x6B91, offset: 0x32073, size: 0x8, addend: 0x0, symName: __ZNSt3__125uniform_real_distributionIdE10param_typeC1B8ue170006Edd, symObjAddr: 0xAA0, symBinAddr: 0x100008640, symSize: 0x30 }
  - { offsetInCU: 0x6BD5, offset: 0x320B7, size: 0x8, addend: 0x0, symName: __ZNSt3__125uniform_real_distributionIdE10param_typeC2B8ue170006Edd, symObjAddr: 0xAD0, symBinAddr: 0x100008670, symSize: 0x30 }
  - { offsetInCU: 0x6C19, offset: 0x320FB, size: 0x8, addend: 0x0, symName: __ZNSt3__126linear_congruential_engineIjLj48271ELj0ELj2147483647EEC1B8ue170006Ej, symObjAddr: 0xB00, symBinAddr: 0x1000086A0, symSize: 0x30 }
  - { offsetInCU: 0x6C4F, offset: 0x32131, size: 0x8, addend: 0x0, symName: __ZNSt3__126linear_congruential_engineIjLj48271ELj0ELj2147483647EEC2B8ue170006Ej, symObjAddr: 0xB30, symBinAddr: 0x1000086D0, symSize: 0x30 }
  - { offsetInCU: 0x6C86, offset: 0x32168, size: 0x8, addend: 0x0, symName: __ZNSt3__126linear_congruential_engineIjLj48271ELj0ELj2147483647EE4seedB8ue170006Ej, symObjAddr: 0xB60, symBinAddr: 0x100008700, symSize: 0x30 }
  - { offsetInCU: 0x6CB8, offset: 0x3219A, size: 0x8, addend: 0x0, symName: __ZNSt3__126linear_congruential_engineIjLj48271ELj0ELj2147483647EE4seedB8ue170006ENS_17integral_constantIbLb0EEENS2_IbLb1EEEj, symObjAddr: 0xB90, symBinAddr: 0x100008730, symSize: 0x50 }
  - { offsetInCU: 0x6D03, offset: 0x321E5, size: 0x8, addend: 0x0, symName: __ZNSt3__125uniform_real_distributionIdEclINS_26linear_congruential_engineIjLj48271ELj0ELj2147483647EEEEEdRT_RKNS1_10param_typeE, symObjAddr: 0xBE0, symBinAddr: 0x100008780, symSize: 0x70 }
  - { offsetInCU: 0x6D4E, offset: 0x32230, size: 0x8, addend: 0x0, symName: __ZNKSt3__125uniform_real_distributionIdE10param_type1bB8ue170006Ev, symObjAddr: 0xC50, symBinAddr: 0x1000087F0, symSize: 0x20 }
  - { offsetInCU: 0x6D72, offset: 0x32254, size: 0x8, addend: 0x0, symName: __ZNKSt3__125uniform_real_distributionIdE10param_type1aB8ue170006Ev, symObjAddr: 0xC70, symBinAddr: 0x100008810, symSize: 0x20 }
  - { offsetInCU: 0x6D96, offset: 0x32278, size: 0x8, addend: 0x0, symName: __ZNSt3__126linear_congruential_engineIjLj48271ELj0ELj2147483647EE3maxB8ue170006Ev, symObjAddr: 0xD90, symBinAddr: 0x100008930, symSize: 0x10 }
  - { offsetInCU: 0x6DAA, offset: 0x3228C, size: 0x8, addend: 0x0, symName: __ZNSt3__126linear_congruential_engineIjLj48271ELj0ELj2147483647EE3minB8ue170006Ev, symObjAddr: 0xDA0, symBinAddr: 0x100008940, symSize: 0x10 }
  - { offsetInCU: 0x6DBE, offset: 0x322A0, size: 0x8, addend: 0x0, symName: __ZNSt3__126linear_congruential_engineIjLj48271ELj0ELj2147483647EEclB8ue170006Ev, symObjAddr: 0xDB0, symBinAddr: 0x100008950, symSize: 0x30 }
  - { offsetInCU: 0x6DED, offset: 0x322CF, size: 0x8, addend: 0x0, symName: __ZNSt3__18__lce_taILy48271ELy0ELy2147483647ELy4294967295ELb1EE4nextB8ue170006Ej, symObjAddr: 0xDE0, symBinAddr: 0x100008980, symSize: 0x80 }
  - { offsetInCU: 0x6E63, offset: 0x32345, size: 0x8, addend: 0x0, symName: __ZNSt3__16vectorI4Vec3IiENS_9allocatorIS2_EEEC2B8ue170006Ev, symObjAddr: 0xE60, symBinAddr: 0x100008A00, symSize: 0x50 }
  - { offsetInCU: 0x6E97, offset: 0x32379, size: 0x8, addend: 0x0, symName: __ZNSt3__117__compressed_pairIP4Vec3IiENS_9allocatorIS2_EEEC1B8ue170006IDnNS_18__default_init_tagEEEOT_OT0_, symObjAddr: 0xEB0, symBinAddr: 0x100008A50, symSize: 0x30 }
  - { offsetInCU: 0x6EED, offset: 0x323CF, size: 0x8, addend: 0x0, symName: __ZNSt3__117__compressed_pairIP4Vec3IiENS_9allocatorIS2_EEEC2B8ue170006IDnNS_18__default_init_tagEEEOT_OT0_, symObjAddr: 0xEF0, symBinAddr: 0x100008A80, symSize: 0x40 }
  - { offsetInCU: 0x6F43, offset: 0x32425, size: 0x8, addend: 0x0, symName: __ZNSt3__122__compressed_pair_elemIP4Vec3IiELi0ELb0EEC2B8ue170006IDnvEEOT_, symObjAddr: 0xF30, symBinAddr: 0x100008AC0, symSize: 0x20 }
  - { offsetInCU: 0x6F83, offset: 0x32465, size: 0x8, addend: 0x0, symName: __ZNSt3__122__compressed_pair_elemINS_9allocatorI4Vec3IiEEELi1ELb1EEC2B8ue170006ENS_18__default_init_tagE, symObjAddr: 0xF50, symBinAddr: 0x100008AE0, symSize: 0x20 }
  - { offsetInCU: 0x6FB6, offset: 0x32498, size: 0x8, addend: 0x0, symName: __ZNSt3__19allocatorI4Vec3IiEEC2B8ue170006Ev, symObjAddr: 0xF70, symBinAddr: 0x100008B00, symSize: 0x20 }
  - { offsetInCU: 0x6FDE, offset: 0x324C0, size: 0x8, addend: 0x0, symName: __ZNSt3__116__non_trivial_ifILb1ENS_9allocatorI4Vec3IiEEEEC2B8ue170006Ev, symObjAddr: 0xF90, symBinAddr: 0x100008B20, symSize: 0x10 }
  - { offsetInCU: 0x7006, offset: 0x324E8, size: 0x8, addend: 0x0, symName: __ZNSt3__16vectorI4Vec3IiENS_9allocatorIS2_EEED2B8ue170006Ev, symObjAddr: 0xFA0, symBinAddr: 0x100008B30, symSize: 0x40 }
  - { offsetInCU: 0x702E, offset: 0x32510, size: 0x8, addend: 0x0, symName: __ZNSt3__16vectorI4Vec3IiENS_9allocatorIS2_EEE16__destroy_vectorC1B8ue170006ERS5_, symObjAddr: 0xFE0, symBinAddr: 0x100008B70, symSize: 0x30 }
  - { offsetInCU: 0x7066, offset: 0x32548, size: 0x8, addend: 0x0, symName: __ZNSt3__16vectorI4Vec3IiENS_9allocatorIS2_EEE16__destroy_vectorclB8ue170006Ev, symObjAddr: 0x1010, symBinAddr: 0x100008BA0, symSize: 0x80 }
  - { offsetInCU: 0x7089, offset: 0x3256B, size: 0x8, addend: 0x0, symName: __ZNSt3__16vectorI4Vec3IiENS_9allocatorIS2_EEE16__destroy_vectorC2B8ue170006ERS5_, symObjAddr: 0x1090, symBinAddr: 0x100008C20, symSize: 0x20 }
  - { offsetInCU: 0x70C1, offset: 0x325A3, size: 0x8, addend: 0x0, symName: __ZNSt3__16vectorI4Vec3IiENS_9allocatorIS2_EEE7__clearB8ue170006Ev, symObjAddr: 0x10B0, symBinAddr: 0x100008C40, symSize: 0x20 }
  - { offsetInCU: 0x70E5, offset: 0x325C7, size: 0x8, addend: 0x0, symName: __ZNKSt3__16vectorI4Vec3IiENS_9allocatorIS2_EEE17__annotate_deleteB8ue170006Ev, symObjAddr: 0x10D0, symBinAddr: 0x100008C60, symSize: 0xB0 }
  - { offsetInCU: 0x7109, offset: 0x325EB, size: 0x8, addend: 0x0, symName: __ZNSt3__116allocator_traitsINS_9allocatorI4Vec3IiEEEE10deallocateB8ue170006ERS4_PS3_m, symObjAddr: 0x1180, symBinAddr: 0x100008D10, symSize: 0x30 }
  - { offsetInCU: 0x714B, offset: 0x3262D, size: 0x8, addend: 0x0, symName: __ZNSt3__16vectorI4Vec3IiENS_9allocatorIS2_EEE7__allocB8ue170006Ev, symObjAddr: 0x11B0, symBinAddr: 0x100008D40, symSize: 0x20 }
  - { offsetInCU: 0x716F, offset: 0x32651, size: 0x8, addend: 0x0, symName: __ZNKSt3__16vectorI4Vec3IiENS_9allocatorIS2_EEE8capacityB8ue170006Ev, symObjAddr: 0x11D0, symBinAddr: 0x100008D60, symSize: 0x40 }
  - { offsetInCU: 0x7193, offset: 0x32675, size: 0x8, addend: 0x0, symName: __ZNSt3__16vectorI4Vec3IiENS_9allocatorIS2_EEE22__base_destruct_at_endB8ue170006EPS2_, symObjAddr: 0x1210, symBinAddr: 0x100008DA0, symSize: 0x80 }
  - { offsetInCU: 0x71D6, offset: 0x326B8, size: 0x8, addend: 0x0, symName: __ZNSt3__116allocator_traitsINS_9allocatorI4Vec3IiEEEE7destroyB8ue170006IS3_vEEvRS4_PT_, symObjAddr: 0x1290, symBinAddr: 0x100008E20, symSize: 0x30 }
  - { offsetInCU: 0x7213, offset: 0x326F5, size: 0x8, addend: 0x0, symName: __ZNSt3__19allocatorI4Vec3IiEE7destroyB8ue170006EPS2_, symObjAddr: 0x12D0, symBinAddr: 0x100008E60, symSize: 0x10 }
  - { offsetInCU: 0x7245, offset: 0x32727, size: 0x8, addend: 0x0, symName: __ZNKSt3__16vectorI4Vec3IiENS_9allocatorIS2_EEE31__annotate_contiguous_containerB8ue170006EPKvS7_S7_S7_, symObjAddr: 0x12E0, symBinAddr: 0x100008E70, symSize: 0x20 }
  - { offsetInCU: 0x7299, offset: 0x3277B, size: 0x8, addend: 0x0, symName: __ZNKSt3__16vectorI4Vec3IiENS_9allocatorIS2_EEE4dataB8ue170006Ev, symObjAddr: 0x1300, symBinAddr: 0x100008E90, symSize: 0x20 }
  - { offsetInCU: 0x72BD, offset: 0x3279F, size: 0x8, addend: 0x0, symName: __ZNKSt3__16vectorI4Vec3IiENS_9allocatorIS2_EEE4sizeB8ue170006Ev, symObjAddr: 0x1320, symBinAddr: 0x100008EB0, symSize: 0x30 }
  - { offsetInCU: 0x72E1, offset: 0x327C3, size: 0x8, addend: 0x0, symName: __ZNSt3__19allocatorI4Vec3IiEE10deallocateB8ue170006EPS2_m, symObjAddr: 0x1350, symBinAddr: 0x100008EE0, symSize: 0x50 }
  - { offsetInCU: 0x7321, offset: 0x32803, size: 0x8, addend: 0x0, symName: __ZNSt3__117__compressed_pairIP4Vec3IiENS_9allocatorIS2_EEE6secondB8ue170006Ev, symObjAddr: 0x14C0, symBinAddr: 0x100008F30, symSize: 0x20 }
  - { offsetInCU: 0x7345, offset: 0x32827, size: 0x8, addend: 0x0, symName: __ZNSt3__122__compressed_pair_elemINS_9allocatorI4Vec3IiEEELi1ELb1EE5__getB8ue170006Ev, symObjAddr: 0x14E0, symBinAddr: 0x100008F50, symSize: 0x10 }
  - { offsetInCU: 0x7369, offset: 0x3284B, size: 0x8, addend: 0x0, symName: __ZNKSt3__16vectorI4Vec3IiENS_9allocatorIS2_EEE9__end_capB8ue170006Ev, symObjAddr: 0x14F0, symBinAddr: 0x100008F60, symSize: 0x20 }
  - { offsetInCU: 0x738D, offset: 0x3286F, size: 0x8, addend: 0x0, symName: __ZNKSt3__117__compressed_pairIP4Vec3IiENS_9allocatorIS2_EEE5firstB8ue170006Ev, symObjAddr: 0x1510, symBinAddr: 0x100008F80, symSize: 0x20 }
  - { offsetInCU: 0x73B1, offset: 0x32893, size: 0x8, addend: 0x0, symName: __ZNKSt3__122__compressed_pair_elemIP4Vec3IiELi0ELb0EE5__getB8ue170006Ev, symObjAddr: 0x1530, symBinAddr: 0x100008FA0, symSize: 0x10 }
  - { offsetInCU: 0x73D5, offset: 0x328B7, size: 0x8, addend: 0x0, symName: __ZNSt3__16vectorI4Vec3IiENS_9allocatorIS2_EEE9__end_capB8ue170006Ev, symObjAddr: 0x1540, symBinAddr: 0x100008FB0, symSize: 0x20 }
  - { offsetInCU: 0x73F9, offset: 0x328DB, size: 0x8, addend: 0x0, symName: __ZNSt3__16vectorI4Vec3IiENS_9allocatorIS2_EEE22__construct_one_at_endB8ue170006IJRKS2_EEEvDpOT_, symObjAddr: 0x1560, symBinAddr: 0x100008FD0, symSize: 0x90 }
  - { offsetInCU: 0x7446, offset: 0x32928, size: 0x8, addend: 0x0, symName: __ZNSt3__16vectorI4Vec3IiENS_9allocatorIS2_EEE21__push_back_slow_pathIRKS2_EEvOT_, symObjAddr: 0x15F0, symBinAddr: 0x100009060, symSize: 0xD0 }
  - { offsetInCU: 0x74A6, offset: 0x32988, size: 0x8, addend: 0x0, symName: __ZNSt3__117__compressed_pairIP4Vec3IiENS_9allocatorIS2_EEE5firstB8ue170006Ev, symObjAddr: 0x16C0, symBinAddr: 0x100009130, symSize: 0x20 }
  - { offsetInCU: 0x74CA, offset: 0x329AC, size: 0x8, addend: 0x0, symName: __ZNSt3__122__compressed_pair_elemIP4Vec3IiELi0ELb0EE5__getB8ue170006Ev, symObjAddr: 0x16E0, symBinAddr: 0x100009150, symSize: 0x10 }
  - { offsetInCU: 0x7506, offset: 0x329E8, size: 0x8, addend: 0x0, symName: __ZNSt3__16vectorI4Vec3IiENS_9allocatorIS2_EEE21_ConstructTransactionC1B8ue170006ERS5_m, symObjAddr: 0x16F0, symBinAddr: 0x100009160, symSize: 0x30 }
  - { offsetInCU: 0x754D, offset: 0x32A2F, size: 0x8, addend: 0x0, symName: __ZNSt3__116allocator_traitsINS_9allocatorI4Vec3IiEEEE9constructB8ue170006IS3_JRKS3_EvEEvRS4_PT_DpOT0_, symObjAddr: 0x1720, symBinAddr: 0x100009190, symSize: 0x30 }
  - { offsetInCU: 0x75A3, offset: 0x32A85, size: 0x8, addend: 0x0, symName: __ZNSt3__16vectorI4Vec3IiENS_9allocatorIS2_EEE21_ConstructTransactionD1B8ue170006Ev, symObjAddr: 0x1750, symBinAddr: 0x1000091C0, symSize: 0x20 }
  - { offsetInCU: 0x75CB, offset: 0x32AAD, size: 0x8, addend: 0x0, symName: __ZNSt3__16vectorI4Vec3IiENS_9allocatorIS2_EEE21_ConstructTransactionC2B8ue170006ERS5_m, symObjAddr: 0x1770, symBinAddr: 0x1000091E0, symSize: 0x40 }
  - { offsetInCU: 0x7612, offset: 0x32AF4, size: 0x8, addend: 0x0, symName: __ZNSt3__19allocatorI4Vec3IiEE9constructB8ue170006IS2_JRKS2_EEEvPT_DpOT0_, symObjAddr: 0x17B0, symBinAddr: 0x100009220, symSize: 0x30 }
  - { offsetInCU: 0x7665, offset: 0x32B47, size: 0x8, addend: 0x0, symName: __ZN4Vec3IiEC1ERKS0_, symObjAddr: 0x17E0, symBinAddr: 0x100009250, symSize: 0x30 }
  - { offsetInCU: 0x769B, offset: 0x32B7D, size: 0x8, addend: 0x0, symName: __ZN4Vec3IiEC2ERKS0_, symObjAddr: 0x1810, symBinAddr: 0x100009280, symSize: 0x30 }
  - { offsetInCU: 0x76D1, offset: 0x32BB3, size: 0x8, addend: 0x0, symName: __ZNSt3__16vectorI4Vec3IiENS_9allocatorIS2_EEE21_ConstructTransactionD2B8ue170006Ev, symObjAddr: 0x1840, symBinAddr: 0x1000092B0, symSize: 0x20 }
  - { offsetInCU: 0x76F9, offset: 0x32BDB, size: 0x8, addend: 0x0, symName: __ZNKSt3__16vectorI4Vec3IiENS_9allocatorIS2_EEE11__recommendB8ue170006Em, symObjAddr: 0x1860, symBinAddr: 0x1000092D0, symSize: 0xA0 }
  - { offsetInCU: 0x7750, offset: 0x32C32, size: 0x8, addend: 0x0, symName: __ZNSt3__114__split_bufferI4Vec3IiERNS_9allocatorIS2_EEEC1EmmS5_, symObjAddr: 0x1900, symBinAddr: 0x100009370, symSize: 0x40 }
  - { offsetInCU: 0x77A5, offset: 0x32C87, size: 0x8, addend: 0x0, symName: __ZNSt3__114__split_bufferI4Vec3IiERNS_9allocatorIS2_EEED1Ev, symObjAddr: 0x1A60, symBinAddr: 0x1000094D0, symSize: 0x20 }
  - { offsetInCU: 0x77CF, offset: 0x32CB1, size: 0x8, addend: 0x0, symName: __ZNKSt3__16vectorI4Vec3IiENS_9allocatorIS2_EEE8max_sizeEv, symObjAddr: 0x1A80, symBinAddr: 0x1000094F0, symSize: 0x60 }
  - { offsetInCU: 0x77F7, offset: 0x32CD9, size: 0x8, addend: 0x0, symName: __ZNKSt3__16vectorI4Vec3IiENS_9allocatorIS2_EEE20__throw_length_errorB8ue170006Ev, symObjAddr: 0x1AE0, symBinAddr: 0x100009550, symSize: 0x20 }
  - { offsetInCU: 0x7825, offset: 0x32D07, size: 0x8, addend: 0x0, symName: __ZNSt3__116allocator_traitsINS_9allocatorI4Vec3IiEEEE8max_sizeB8ue170006IS4_vEEmRKS4_, symObjAddr: 0x1B60, symBinAddr: 0x100009570, symSize: 0x20 }
  - { offsetInCU: 0x7853, offset: 0x32D35, size: 0x8, addend: 0x0, symName: __ZNKSt3__16vectorI4Vec3IiENS_9allocatorIS2_EEE7__allocB8ue170006Ev, symObjAddr: 0x1B80, symBinAddr: 0x100009590, symSize: 0x20 }
  - { offsetInCU: 0x7877, offset: 0x32D59, size: 0x8, addend: 0x0, symName: __ZNKSt3__19allocatorI4Vec3IiEE8max_sizeB8ue170006Ev, symObjAddr: 0x1C30, symBinAddr: 0x1000095B0, symSize: 0x20 }
  - { offsetInCU: 0x789B, offset: 0x32D7D, size: 0x8, addend: 0x0, symName: __ZNKSt3__117__compressed_pairIP4Vec3IiENS_9allocatorIS2_EEE6secondB8ue170006Ev, symObjAddr: 0x1C50, symBinAddr: 0x1000095D0, symSize: 0x20 }
  - { offsetInCU: 0x78BF, offset: 0x32DA1, size: 0x8, addend: 0x0, symName: __ZNKSt3__122__compressed_pair_elemINS_9allocatorI4Vec3IiEEELi1ELb1EE5__getB8ue170006Ev, symObjAddr: 0x1C70, symBinAddr: 0x1000095F0, symSize: 0x10 }
  - { offsetInCU: 0x78E3, offset: 0x32DC5, size: 0x8, addend: 0x0, symName: __ZNSt3__114__split_bufferI4Vec3IiERNS_9allocatorIS2_EEEC2EmmS5_, symObjAddr: 0x1DC0, symBinAddr: 0x100009600, symSize: 0xC0 }
  - { offsetInCU: 0x7956, offset: 0x32E38, size: 0x8, addend: 0x0, symName: __ZNSt3__117__compressed_pairIP4Vec3IiERNS_9allocatorIS2_EEEC1B8ue170006IDnS6_EEOT_OT0_, symObjAddr: 0x1E80, symBinAddr: 0x1000096C0, symSize: 0x30 }
  - { offsetInCU: 0x79AD, offset: 0x32E8F, size: 0x8, addend: 0x0, symName: __ZNSt3__114__split_bufferI4Vec3IiERNS_9allocatorIS2_EEE7__allocB8ue170006Ev, symObjAddr: 0x1EF0, symBinAddr: 0x100009730, symSize: 0x20 }
  - { offsetInCU: 0x79D1, offset: 0x32EB3, size: 0x8, addend: 0x0, symName: __ZNSt3__114__split_bufferI4Vec3IiERNS_9allocatorIS2_EEE9__end_capB8ue170006Ev, symObjAddr: 0x1F10, symBinAddr: 0x100009750, symSize: 0x20 }
  - { offsetInCU: 0x79F4, offset: 0x32ED6, size: 0x8, addend: 0x0, symName: __ZNSt3__117__compressed_pairIP4Vec3IiERNS_9allocatorIS2_EEEC2B8ue170006IDnS6_EEOT_OT0_, symObjAddr: 0x1F30, symBinAddr: 0x100009770, symSize: 0x40 }
  - { offsetInCU: 0x7A4A, offset: 0x32F2C, size: 0x8, addend: 0x0, symName: __ZNSt3__122__compressed_pair_elemIRNS_9allocatorI4Vec3IiEEELi1ELb0EEC2B8ue170006IS5_vEEOT_, symObjAddr: 0x1F70, symBinAddr: 0x1000097B0, symSize: 0x20 }
  - { offsetInCU: 0x7A8B, offset: 0x32F6D, size: 0x8, addend: 0x0, symName: __ZNSt3__19allocatorI4Vec3IiEE8allocateB8ue170006Em, symObjAddr: 0x1F90, symBinAddr: 0x1000097D0, symSize: 0x50 }
  - { offsetInCU: 0x7ABD, offset: 0x32F9F, size: 0x8, addend: 0x0, symName: __ZNSt3__117__compressed_pairIP4Vec3IiERNS_9allocatorIS2_EEE6secondB8ue170006Ev, symObjAddr: 0x20D0, symBinAddr: 0x100009820, symSize: 0x20 }
  - { offsetInCU: 0x7AE1, offset: 0x32FC3, size: 0x8, addend: 0x0, symName: __ZNSt3__122__compressed_pair_elemIRNS_9allocatorI4Vec3IiEEELi1ELb0EE5__getB8ue170006Ev, symObjAddr: 0x20F0, symBinAddr: 0x100009840, symSize: 0x20 }
  - { offsetInCU: 0x7B05, offset: 0x32FE7, size: 0x8, addend: 0x0, symName: __ZNSt3__117__compressed_pairIP4Vec3IiERNS_9allocatorIS2_EEE5firstB8ue170006Ev, symObjAddr: 0x2110, symBinAddr: 0x100009860, symSize: 0x20 }
  - { offsetInCU: 0x7B28, offset: 0x3300A, size: 0x8, addend: 0x0, symName: __ZNSt3__116reverse_iteratorIP4Vec3IiEEC1B8ue170006ES3_, symObjAddr: 0x22B0, symBinAddr: 0x100009A00, symSize: 0x30 }
  - { offsetInCU: 0x7B5F, offset: 0x33041, size: 0x8, addend: 0x0, symName: __ZNKSt3__116reverse_iteratorIP4Vec3IiEE4baseB8ue170006Ev, symObjAddr: 0x22E0, symBinAddr: 0x100009A30, symSize: 0x20 }
  - { offsetInCU: 0x7B83, offset: 0x33065, size: 0x8, addend: 0x0, symName: __ZNKSt3__16vectorI4Vec3IiENS_9allocatorIS2_EEE14__annotate_newB8ue170006Em, symObjAddr: 0x2340, symBinAddr: 0x100009A90, symSize: 0xA0 }
  - { offsetInCU: 0x7BB5, offset: 0x33097, size: 0x8, addend: 0x0, symName: __ZNSt3__129_AllocatorDestroyRangeReverseINS_9allocatorI4Vec3IiEEENS_16reverse_iteratorIPS3_EEEC1B8ue170006ERS4_RS7_SA_, symObjAddr: 0x2440, symBinAddr: 0x100009B90, symSize: 0x40 }
  - { offsetInCU: 0x7C0B, offset: 0x330ED, size: 0x8, addend: 0x0, symName: __ZNKSt3__116reverse_iteratorIP4Vec3IiEEdeB8ue170006Ev, symObjAddr: 0x24E0, symBinAddr: 0x100009C30, symSize: 0x30 }
  - { offsetInCU: 0x7C3D, offset: 0x3311F, size: 0x8, addend: 0x0, symName: __ZNSt3__116reverse_iteratorIP4Vec3IiEEppB8ue170006Ev, symObjAddr: 0x2510, symBinAddr: 0x100009C60, symSize: 0x20 }
  - { offsetInCU: 0x7C61, offset: 0x33143, size: 0x8, addend: 0x0, symName: __ZNSt3__128__exception_guard_exceptionsINS_29_AllocatorDestroyRangeReverseINS_9allocatorI4Vec3IiEEENS_16reverse_iteratorIPS4_EEEEE10__completeB8ue170006Ev, symObjAddr: 0x2530, symBinAddr: 0x100009C80, symSize: 0x20 }
  - { offsetInCU: 0x7C84, offset: 0x33166, size: 0x8, addend: 0x0, symName: __ZNSt3__128__exception_guard_exceptionsINS_29_AllocatorDestroyRangeReverseINS_9allocatorI4Vec3IiEEENS_16reverse_iteratorIPS4_EEEEED1B8ue170006Ev, symObjAddr: 0x2550, symBinAddr: 0x100009CA0, symSize: 0x20 }
  - { offsetInCU: 0x7CAC, offset: 0x3318E, size: 0x8, addend: 0x0, symName: __ZNSt3__128__exception_guard_exceptionsINS_29_AllocatorDestroyRangeReverseINS_9allocatorI4Vec3IiEEENS_16reverse_iteratorIPS4_EEEEEC1B8ue170006ES9_, symObjAddr: 0x2570, symBinAddr: 0x100009CC0, symSize: 0x40 }
  - { offsetInCU: 0x7CE2, offset: 0x331C4, size: 0x8, addend: 0x0, symName: __ZNSt3__128__exception_guard_exceptionsINS_29_AllocatorDestroyRangeReverseINS_9allocatorI4Vec3IiEEENS_16reverse_iteratorIPS4_EEEEEC2B8ue170006ES9_, symObjAddr: 0x25B0, symBinAddr: 0x100009D00, symSize: 0x30 }
  - { offsetInCU: 0x7D18, offset: 0x331FA, size: 0x8, addend: 0x0, symName: __ZNSt3__129_AllocatorDestroyRangeReverseINS_9allocatorI4Vec3IiEEENS_16reverse_iteratorIPS3_EEEC2B8ue170006ERS4_RS7_SA_, symObjAddr: 0x25E0, symBinAddr: 0x100009D30, symSize: 0x40 }
  - { offsetInCU: 0x7D73, offset: 0x33255, size: 0x8, addend: 0x0, symName: __ZNSt3__119__to_address_helperINS_16reverse_iteratorIP4Vec3IiEEEvE6__callB8ue170006ERKS5_, symObjAddr: 0x2620, symBinAddr: 0x100009D70, symSize: 0x40 }
  - { offsetInCU: 0x7D96, offset: 0x33278, size: 0x8, addend: 0x0, symName: __ZNKSt3__116reverse_iteratorIP4Vec3IiEEptB8ue170006Ev, symObjAddr: 0x2660, symBinAddr: 0x100009DB0, symSize: 0x20 }
  - { offsetInCU: 0x7DB9, offset: 0x3329B, size: 0x8, addend: 0x0, symName: __ZNSt3__128__exception_guard_exceptionsINS_29_AllocatorDestroyRangeReverseINS_9allocatorI4Vec3IiEEENS_16reverse_iteratorIPS4_EEEEED2B8ue170006Ev, symObjAddr: 0x2680, symBinAddr: 0x100009DD0, symSize: 0x40 }
  - { offsetInCU: 0x7DE2, offset: 0x332C4, size: 0x8, addend: 0x0, symName: __ZNKSt3__129_AllocatorDestroyRangeReverseINS_9allocatorI4Vec3IiEEENS_16reverse_iteratorIPS3_EEEclB8ue170006Ev, symObjAddr: 0x26C0, symBinAddr: 0x100009E10, symSize: 0xF0 }
  - { offsetInCU: 0x7E06, offset: 0x332E8, size: 0x8, addend: 0x0, symName: __ZNSt3__116reverse_iteratorINS0_IP4Vec3IiEEEEC1B8ue170006ES4_, symObjAddr: 0x2820, symBinAddr: 0x100009F70, symSize: 0x30 }
  - { offsetInCU: 0x7E3D, offset: 0x3331F, size: 0x8, addend: 0x0, symName: __ZNSt3__116reverse_iteratorINS0_IP4Vec3IiEEEEppB8ue170006Ev, symObjAddr: 0x28C0, symBinAddr: 0x10000A010, symSize: 0x30 }
  - { offsetInCU: 0x7E61, offset: 0x33343, size: 0x8, addend: 0x0, symName: __ZNKSt3__116reverse_iteratorINS0_IP4Vec3IiEEEE4baseB8ue170006Ev, symObjAddr: 0x28F0, symBinAddr: 0x10000A040, symSize: 0x20 }
  - { offsetInCU: 0x7E8A, offset: 0x3336C, size: 0x8, addend: 0x0, symName: __ZNSt3__119__to_address_helperINS_16reverse_iteratorINS1_IP4Vec3IiEEEEEvE6__callB8ue170006ERKS6_, symObjAddr: 0x2910, symBinAddr: 0x10000A060, symSize: 0x40 }
  - { offsetInCU: 0x7EAD, offset: 0x3338F, size: 0x8, addend: 0x0, symName: __ZNKSt3__116reverse_iteratorINS0_IP4Vec3IiEEEEptB8ue170006Ev, symObjAddr: 0x2950, symBinAddr: 0x10000A0A0, symSize: 0x20 }
  - { offsetInCU: 0x7ED1, offset: 0x333B3, size: 0x8, addend: 0x0, symName: __ZNKSt3__116reverse_iteratorINS0_IP4Vec3IiEEEEdeB8ue170006Ev, symObjAddr: 0x2970, symBinAddr: 0x10000A0C0, symSize: 0x40 }
  - { offsetInCU: 0x7F03, offset: 0x333E5, size: 0x8, addend: 0x0, symName: __ZNSt3__116reverse_iteratorIP4Vec3IiEEmmB8ue170006Ev, symObjAddr: 0x29B0, symBinAddr: 0x10000A100, symSize: 0x20 }
  - { offsetInCU: 0x7F26, offset: 0x33408, size: 0x8, addend: 0x0, symName: __ZNSt3__116reverse_iteratorINS0_IP4Vec3IiEEEEC2B8ue170006ES4_, symObjAddr: 0x29D0, symBinAddr: 0x10000A120, symSize: 0x40 }
  - { offsetInCU: 0x7F5C, offset: 0x3343E, size: 0x8, addend: 0x0, symName: __ZNSt3__116reverse_iteratorIP4Vec3IiEEC2B8ue170006ES3_, symObjAddr: 0x2A10, symBinAddr: 0x10000A160, symSize: 0x30 }
  - { offsetInCU: 0x7F93, offset: 0x33475, size: 0x8, addend: 0x0, symName: __ZNSt3__114__split_bufferI4Vec3IiERNS_9allocatorIS2_EEED2Ev, symObjAddr: 0x2A40, symBinAddr: 0x10000A190, symSize: 0x70 }
  - { offsetInCU: 0x7FBE, offset: 0x334A0, size: 0x8, addend: 0x0, symName: __ZNSt3__114__split_bufferI4Vec3IiERNS_9allocatorIS2_EEE5clearB8ue170006Ev, symObjAddr: 0x2AB0, symBinAddr: 0x10000A200, symSize: 0x20 }
  - { offsetInCU: 0x7FE2, offset: 0x334C4, size: 0x8, addend: 0x0, symName: __ZNKSt3__114__split_bufferI4Vec3IiERNS_9allocatorIS2_EEE8capacityB8ue170006Ev, symObjAddr: 0x2AD0, symBinAddr: 0x10000A220, symSize: 0x40 }
  - { offsetInCU: 0x8006, offset: 0x334E8, size: 0x8, addend: 0x0, symName: __ZNSt3__114__split_bufferI4Vec3IiERNS_9allocatorIS2_EEE17__destruct_at_endB8ue170006EPS2_, symObjAddr: 0x2B10, symBinAddr: 0x10000A260, symSize: 0x30 }
  - { offsetInCU: 0x8037, offset: 0x33519, size: 0x8, addend: 0x0, symName: __ZNSt3__114__split_bufferI4Vec3IiERNS_9allocatorIS2_EEE17__destruct_at_endB8ue170006EPS2_NS_17integral_constantIbLb0EEE, symObjAddr: 0x2B40, symBinAddr: 0x10000A290, symSize: 0x80 }
  - { offsetInCU: 0x8078, offset: 0x3355A, size: 0x8, addend: 0x0, symName: __ZNKSt3__114__split_bufferI4Vec3IiERNS_9allocatorIS2_EEE9__end_capB8ue170006Ev, symObjAddr: 0x2BC0, symBinAddr: 0x10000A310, symSize: 0x20 }
  - { offsetInCU: 0x809C, offset: 0x3357E, size: 0x8, addend: 0x0, symName: __ZNKSt3__117__compressed_pairIP4Vec3IiERNS_9allocatorIS2_EEE5firstB8ue170006Ev, symObjAddr: 0x2BE0, symBinAddr: 0x10000A330, symSize: 0x20 }
  - { offsetInCU: 0x80BF, offset: 0x335A1, size: 0x8, addend: 0x0, symName: __ZN4Vec3IiEC1Ev, symObjAddr: 0x2C00, symBinAddr: 0x10000A350, symSize: 0x20 }
  - { offsetInCU: 0x80E7, offset: 0x335C9, size: 0x8, addend: 0x0, symName: __ZNSt3__16vectorI4Vec3IiENS_9allocatorIS2_EEE5beginB8ue170006Ev, symObjAddr: 0x2C20, symBinAddr: 0x10000A370, symSize: 0x30 }
  - { offsetInCU: 0x810E, offset: 0x335F0, size: 0x8, addend: 0x0, symName: __ZNSt3__16vectorI4Vec3IiENS_9allocatorIS2_EEE3endB8ue170006Ev, symObjAddr: 0x2C50, symBinAddr: 0x10000A3A0, symSize: 0x30 }
  - { offsetInCU: 0x8136, offset: 0x33618, size: 0x8, addend: 0x0, symName: __ZNKSt3__111__wrap_iterIP4Vec3IiEEdeB8ue170006Ev, symObjAddr: 0x2CB0, symBinAddr: 0x10000A400, symSize: 0x20 }
  - { offsetInCU: 0x815A, offset: 0x3363C, size: 0x8, addend: 0x0, symName: __ZNK4Vec3IiEplERKS0_, symObjAddr: 0x2CD0, symBinAddr: 0x10000A420, symSize: 0x50 }
  - { offsetInCU: 0x818C, offset: 0x3366E, size: 0x8, addend: 0x0, symName: __ZNSt3__111__wrap_iterIP4Vec3IiEEppB8ue170006Ev, symObjAddr: 0x2D20, symBinAddr: 0x10000A470, symSize: 0x20 }
  - { offsetInCU: 0x81B0, offset: 0x33692, size: 0x8, addend: 0x0, symName: __ZNK4Vec3IiEdvERKd, symObjAddr: 0x2D40, symBinAddr: 0x10000A490, symSize: 0x60 }
  - { offsetInCU: 0x81E1, offset: 0x336C3, size: 0x8, addend: 0x0, symName: __ZN4Vec3IiEC2Ev, symObjAddr: 0x2DA0, symBinAddr: 0x10000A4F0, symSize: 0x30 }
  - { offsetInCU: 0x820A, offset: 0x336EC, size: 0x8, addend: 0x0, symName: __ZNSt3__16vectorI4Vec3IiENS_9allocatorIS2_EEE11__make_iterB8ue170006EPS2_, symObjAddr: 0x2DD0, symBinAddr: 0x10000A520, symSize: 0x30 }
  - { offsetInCU: 0x823C, offset: 0x3371E, size: 0x8, addend: 0x0, symName: __ZNSt3__111__wrap_iterIP4Vec3IiEEC1B8ue170006ES3_, symObjAddr: 0x2E00, symBinAddr: 0x10000A550, symSize: 0x30 }
  - { offsetInCU: 0x8272, offset: 0x33754, size: 0x8, addend: 0x0, symName: __ZNSt3__111__wrap_iterIP4Vec3IiEEC2B8ue170006ES3_, symObjAddr: 0x2E30, symBinAddr: 0x10000A580, symSize: 0x20 }
  - { offsetInCU: 0x82A9, offset: 0x3378B, size: 0x8, addend: 0x0, symName: __ZNKSt3__111__wrap_iterIP4Vec3IiEE4baseB8ue170006Ev, symObjAddr: 0x2E90, symBinAddr: 0x10000A5E0, symSize: 0x20 }
  - { offsetInCU: 0x82CD, offset: 0x337AF, size: 0x8, addend: 0x0, symName: __ZNSt3__16vectorI4Vec3IiENS_9allocatorIS2_EEEC2ERKS5_, symObjAddr: 0x2F10, symBinAddr: 0x10000A600, symSize: 0xA0 }
  - { offsetInCU: 0x8307, offset: 0x337E9, size: 0x8, addend: 0x0, symName: __ZNSt3__116allocator_traitsINS_9allocatorI4Vec3IiEEEE37select_on_container_copy_constructionB8ue170006IS4_vvEES4_RKS4_, symObjAddr: 0x2FB0, symBinAddr: 0x10000A6A0, symSize: 0x10 }
  - { offsetInCU: 0x833B, offset: 0x3381D, size: 0x8, addend: 0x0, symName: __ZNSt3__117__compressed_pairIP4Vec3IiENS_9allocatorIS2_EEEC1B8ue170006IDnS5_EEOT_OT0_, symObjAddr: 0x2FC0, symBinAddr: 0x10000A6B0, symSize: 0x30 }
  - { offsetInCU: 0x8392, offset: 0x33874, size: 0x8, addend: 0x0, symName: __ZNSt3__16vectorI4Vec3IiENS_9allocatorIS2_EEE16__init_with_sizeB8ue170006IPS2_S7_EEvT_T0_m, symObjAddr: 0x2FF0, symBinAddr: 0x10000A6E0, symSize: 0xB0 }
  - { offsetInCU: 0x8404, offset: 0x338E6, size: 0x8, addend: 0x0, symName: __ZNSt3__117__compressed_pairIP4Vec3IiENS_9allocatorIS2_EEEC2B8ue170006IDnS5_EEOT_OT0_, symObjAddr: 0x30A0, symBinAddr: 0x10000A790, symSize: 0x40 }
  - { offsetInCU: 0x845A, offset: 0x3393C, size: 0x8, addend: 0x0, symName: __ZNSt3__122__compressed_pair_elemINS_9allocatorI4Vec3IiEEELi1ELb1EEC2B8ue170006IS4_vEEOT_, symObjAddr: 0x30E0, symBinAddr: 0x10000A7D0, symSize: 0x10 }
  - { offsetInCU: 0x849B, offset: 0x3397D, size: 0x8, addend: 0x0, symName: __ZNSt3__16vectorI4Vec3IiENS_9allocatorIS2_EEE11__vallocateB8ue170006Em, symObjAddr: 0x3130, symBinAddr: 0x10000A820, symSize: 0xA0 }
  - { offsetInCU: 0x84DD, offset: 0x339BF, size: 0x8, addend: 0x0, symName: __ZNSt3__16vectorI4Vec3IiENS_9allocatorIS2_EEE18__construct_at_endIPS2_S7_EEvT_T0_m, symObjAddr: 0x31D0, symBinAddr: 0x10000A8C0, symSize: 0x90 }
  - { offsetInCU: 0x8554, offset: 0x33A36, size: 0x8, addend: 0x0, symName: __ZNSt3__128__exception_guard_exceptionsINS_6vectorI4Vec3IiENS_9allocatorIS3_EEE16__destroy_vectorEE10__completeB8ue170006Ev, symObjAddr: 0x3260, symBinAddr: 0x10000A950, symSize: 0x20 }
  - { offsetInCU: 0x8577, offset: 0x33A59, size: 0x8, addend: 0x0, symName: __ZNSt3__128__exception_guard_exceptionsINS_6vectorI4Vec3IiENS_9allocatorIS3_EEE16__destroy_vectorEED1B8ue170006Ev, symObjAddr: 0x3280, symBinAddr: 0x10000A970, symSize: 0x20 }
  - { offsetInCU: 0x859F, offset: 0x33A81, size: 0x8, addend: 0x0, symName: __ZNSt3__128__exception_guard_exceptionsINS_6vectorI4Vec3IiENS_9allocatorIS3_EEE16__destroy_vectorEEC1B8ue170006ES7_, symObjAddr: 0x32A0, symBinAddr: 0x10000A990, symSize: 0x30 }
  - { offsetInCU: 0x85D5, offset: 0x33AB7, size: 0x8, addend: 0x0, symName: __ZNSt3__128__exception_guard_exceptionsINS_6vectorI4Vec3IiENS_9allocatorIS3_EEE16__destroy_vectorEEC2B8ue170006ES7_, symObjAddr: 0x32D0, symBinAddr: 0x10000A9C0, symSize: 0x20 }
  - { offsetInCU: 0x862B, offset: 0x33B0D, size: 0x8, addend: 0x0, symName: __ZNSt3__14pairIP4Vec3IiES3_EC1B8ue170006IS3_S3_LPv0EEEOT_OT0_, symObjAddr: 0x3550, symBinAddr: 0x10000AC40, symSize: 0x30 }
  - { offsetInCU: 0x8688, offset: 0x33B6A, size: 0x8, addend: 0x0, symName: __ZNSt3__14pairIP4Vec3IiES3_EC2B8ue170006IS3_S3_LPv0EEEOT_OT0_, symObjAddr: 0x3580, symBinAddr: 0x10000AC70, symSize: 0x30 }
  - { offsetInCU: 0x86E5, offset: 0x33BC7, size: 0x8, addend: 0x0, symName: __ZNSt3__129_AllocatorDestroyRangeReverseINS_9allocatorI4Vec3IiEEEPS3_EC1B8ue170006ERS4_RS5_S8_, symObjAddr: 0x3610, symBinAddr: 0x10000AD00, symSize: 0x40 }
  - { offsetInCU: 0x873B, offset: 0x33C1D, size: 0x8, addend: 0x0, symName: __ZNSt3__116allocator_traitsINS_9allocatorI4Vec3IiEEEE9constructB8ue170006IS3_JRS3_EvEEvRS4_PT_DpOT0_, symObjAddr: 0x3650, symBinAddr: 0x10000AD40, symSize: 0x30 }
  - { offsetInCU: 0x8792, offset: 0x33C74, size: 0x8, addend: 0x0, symName: __ZNSt3__128__exception_guard_exceptionsINS_29_AllocatorDestroyRangeReverseINS_9allocatorI4Vec3IiEEEPS4_EEE10__completeB8ue170006Ev, symObjAddr: 0x3680, symBinAddr: 0x10000AD70, symSize: 0x20 }
  - { offsetInCU: 0x87B5, offset: 0x33C97, size: 0x8, addend: 0x0, symName: __ZNSt3__128__exception_guard_exceptionsINS_29_AllocatorDestroyRangeReverseINS_9allocatorI4Vec3IiEEEPS4_EEED1B8ue170006Ev, symObjAddr: 0x36A0, symBinAddr: 0x10000AD90, symSize: 0x20 }
  - { offsetInCU: 0x87DD, offset: 0x33CBF, size: 0x8, addend: 0x0, symName: __ZNSt3__128__exception_guard_exceptionsINS_29_AllocatorDestroyRangeReverseINS_9allocatorI4Vec3IiEEEPS4_EEEC1B8ue170006ES7_, symObjAddr: 0x36C0, symBinAddr: 0x10000ADB0, symSize: 0x40 }
  - { offsetInCU: 0x8813, offset: 0x33CF5, size: 0x8, addend: 0x0, symName: __ZNSt3__128__exception_guard_exceptionsINS_29_AllocatorDestroyRangeReverseINS_9allocatorI4Vec3IiEEEPS4_EEEC2B8ue170006ES7_, symObjAddr: 0x3700, symBinAddr: 0x10000ADF0, symSize: 0x30 }
  - { offsetInCU: 0x8849, offset: 0x33D2B, size: 0x8, addend: 0x0, symName: __ZNSt3__129_AllocatorDestroyRangeReverseINS_9allocatorI4Vec3IiEEEPS3_EC2B8ue170006ERS4_RS5_S8_, symObjAddr: 0x3730, symBinAddr: 0x10000AE20, symSize: 0x40 }
  - { offsetInCU: 0x889F, offset: 0x33D81, size: 0x8, addend: 0x0, symName: __ZNSt3__19allocatorI4Vec3IiEE9constructB8ue170006IS2_JRS2_EEEvPT_DpOT0_, symObjAddr: 0x3770, symBinAddr: 0x10000AE60, symSize: 0x30 }
  - { offsetInCU: 0x88F2, offset: 0x33DD4, size: 0x8, addend: 0x0, symName: __ZNSt3__128__exception_guard_exceptionsINS_29_AllocatorDestroyRangeReverseINS_9allocatorI4Vec3IiEEEPS4_EEED2B8ue170006Ev, symObjAddr: 0x37A0, symBinAddr: 0x10000AE90, symSize: 0x40 }
  - { offsetInCU: 0x891B, offset: 0x33DFD, size: 0x8, addend: 0x0, symName: __ZNKSt3__129_AllocatorDestroyRangeReverseINS_9allocatorI4Vec3IiEEEPS3_EclB8ue170006Ev, symObjAddr: 0x37E0, symBinAddr: 0x10000AED0, symSize: 0x60 }
  - { offsetInCU: 0x893F, offset: 0x33E21, size: 0x8, addend: 0x0, symName: __ZNSt3__118__unwrap_iter_implIP4Vec3IiELb1EE8__unwrapB8ue170006ES3_, symObjAddr: 0x38B0, symBinAddr: 0x10000AFA0, symSize: 0x20 }
  - { offsetInCU: 0x8962, offset: 0x33E44, size: 0x8, addend: 0x0, symName: __ZNSt3__118__unwrap_iter_implIP4Vec3IiELb1EE8__rewrapB8ue170006ES3_S3_, symObjAddr: 0x38D0, symBinAddr: 0x10000AFC0, symSize: 0x60 }
  - { offsetInCU: 0x8992, offset: 0x33E74, size: 0x8, addend: 0x0, symName: __ZNSt3__128__exception_guard_exceptionsINS_6vectorI4Vec3IiENS_9allocatorIS3_EEE16__destroy_vectorEED2B8ue170006Ev, symObjAddr: 0x3930, symBinAddr: 0x10000B020, symSize: 0x2D }
  - { offsetInCU: 0x5F, offset: 0x33FB9, size: 0x8, addend: 0x0, symName: __ZL4MISS, symObjAddr: 0x35DC0, symBinAddr: 0x10000D0A8, symSize: 0x0 }
  - { offsetInCU: 0xDC68, offset: 0x41BC2, size: 0x8, addend: 0x0, symName: __ZN5SceneC2EP11Environment, symObjAddr: 0x30, symBinAddr: 0x10000B080, symSize: 0x60 }
  - { offsetInCU: 0xDCA0, offset: 0x41BFA, size: 0x8, addend: 0x0, symName: __ZN9RayTracerC1Ev, symObjAddr: 0x90, symBinAddr: 0x10000B0E0, symSize: 0x20 }
  - { offsetInCU: 0xDCCA, offset: 0x41C24, size: 0x8, addend: 0x0, symName: __ZN5SceneC1EP11Environment, symObjAddr: 0xB0, symBinAddr: 0x10000B100, symSize: 0x30 }
  - { offsetInCU: 0xDD02, offset: 0x41C5C, size: 0x8, addend: 0x0, symName: __ZN5Scene6renderEP11FileManagerRKNSt3__112basic_stringIcNS2_11char_traitsIcEENS2_9allocatorIcEEEE, symObjAddr: 0xE0, symBinAddr: 0x10000B130, symSize: 0x150 }
  - { offsetInCU: 0xDDC7, offset: 0x41D21, size: 0x8, addend: 0x0, symName: __ZN6Camera8getWidthEv, symObjAddr: 0x230, symBinAddr: 0x10000B280, symSize: 0x20 }
  - { offsetInCU: 0xDDEB, offset: 0x41D45, size: 0x8, addend: 0x0, symName: __ZN6Camera9getHeightEv, symObjAddr: 0x250, symBinAddr: 0x10000B2A0, symSize: 0x20 }
  - { offsetInCU: 0xDE0F, offset: 0x41D69, size: 0x8, addend: 0x0, symName: __ZN9RayTracerC2Ev, symObjAddr: 0x2A0, symBinAddr: 0x10000B2C0, symSize: 0x30 }
  - { offsetInCU: 0x5F, offset: 0x41DF7, size: 0x8, addend: 0x0, symName: __ZL4MISS, symObjAddr: 0x36008, symBinAddr: 0x10000D0C0, symSize: 0x0 }
  - { offsetInCU: 0xDBF5, offset: 0x4F98D, size: 0x8, addend: 0x0, symName: _main, symObjAddr: 0x30, symBinAddr: 0x10000B320, symSize: 0x180 }
  - { offsetInCU: 0xDC78, offset: 0x4FA10, size: 0x8, addend: 0x0, symName: __ZNSt3__112basic_stringIcNS_11char_traitsIcEENS_9allocatorIcEEEC1B8ue170006ILi0EEEPKc, symObjAddr: 0x1B0, symBinAddr: 0x10000B4A0, symSize: 0x30 }
  - { offsetInCU: 0xDCB6, offset: 0x4FA4E, size: 0x8, addend: 0x0, symName: __ZNSt3__112basic_stringIcNS_11char_traitsIcEENS_9allocatorIcEEEC2B8ue170006ILi0EEEPKc, symObjAddr: 0x1E0, symBinAddr: 0x10000B4D0, symSize: 0x50 }
...
